(lp0
(lp1
F0.0
aF0.00015000042913015932
aF0.0003000004799105227
aF0.00045000051613897085
aF0.000600000552367419
aF0.0007500005885958672
aF0.0008999999845400453
aF0.0010499999625608325
aF0.001200000406242907
aF0.0013500001514330506
aF0.0015000005951151252
aF0.0016500003403052688
aF0.0018000000854954123
aF0.001950000529177487
aF0.0021000001579523087
aF0.002250000601634383
aF0.002400000346824527
aF0.0025500000920146704
aF0.002700000535696745
aF0.0028500002808868885
aF0.003000000026077032
aa(lp2
F29.0
aF185.42669677734375
aF303.5933837890625
aF377.1730041503906
aF429.5014953613281
aF465.4273376464844
aF491.5298767089844
aF510.08349609375
aF524.0836181640625
aF536.7974853515625
aF546.7545776367188
aF555.584716796875
aF562.1786499023438
aF567.1312866210938
aF571.626220703125
aF575.699951171875
aF579.2302856445312
aF582.0283813476562
aF585.2020874023438
aF586.6210327148438
aF589.0532836914062
aa.