(lp0
(lp1
F0.0
aF0.00015000032726675272
aF0.00030000036349520087
aF0.000450000399723649
aF0.0006000004359520972
aF0.0007500004721805453
aF0.0009000005084089935
aF0.0010500005446374416
aF0.0012000002898275852
aF0.0013500000350177288
aF0.0015000004786998034
aF0.001650000223889947
aF0.0017999999690800905
aF0.001950000412762165
aF0.0021000001579523087
aF0.002250000601634383
aF0.002400000346824527
aF0.0025500000920146704
aF0.002700000535696745
aF0.0028500002808868885
aF0.003000000026077032
aa(lp2
F29.0
aF254.56634521484375
aF369.7650451660156
aF441.053955078125
aF484.9154968261719
aF512.7583618164062
aF530.8352661132812
aF544.8375854492188
aF553.9632568359375
aF561.0579833984375
aF567.16552734375
aF571.8619995117188
aF576.001708984375
aF579.65283203125
aF583.1817626953125
aF584.4541015625
aF588.1119995117188
aF592.4492797851562
aF597.3323974609375
aF600.6694946289062
aF603.9346923828125
aa.