(lp0
(lp1
F0.0
aF0.0001500002690590918
aF0.0003000002761837095
aF0.00045000031241215765
aF0.0006000003777444363
aF0.0007500004139728844
aF0.0009000004502013326
aF0.0010500004282221198
aF0.0012000001734122634
aF0.001350000617094338
aF0.0015000003622844815
aF0.0016500001074746251
aF0.0018000005511566997
aF0.0019500002963468432
aF0.002099999925121665
aF0.0022500003688037395
aF0.002400000113993883
aF0.0025499998591840267
aF0.0027000003028661013
aF0.002850000048056245
aF0.003000000026077032
aa(lp2
F29.0
aF247.8425750732422
aF385.629150390625
aF470.2378845214844
aF521.4970703125
aF554.6864624023438
aF581.6552124023438
aF600.6493530273438
aF615.0090942382812
aF627.9912719726562
aF638.0365600585938
aF646.5903930664062
aF654.8329467773438
aF661.3099365234375
aF667.34326171875
aF672.9410400390625
aF678.0131225585938
aF681.9818115234375
aF684.783203125
aF687.3092651367188
aF689.4835815429688
aa.