(lp0
((lp1
F0.0
aF3.0002840958331944e-06
aF6.000247140036663e-06
aF9.000475074572023e-06
aF1.2000223250652198e-05
aF1.5000595340097789e-05
aF1.8000528143602423e-05
aF2.100005076499656e-05
aF2.4000533812795766e-05
aF2.70005693892017e-05
aF3.0000106562511064e-05
aF3.3000611438183114e-05
aF3.600051422836259e-05
aF3.9000307879177853e-05
aF4.200022522127256e-05
aF4.500041177379899e-05
aF4.8000274546211585e-05
aF5.100046837469563e-05
aF5.400026202551089e-05
aF5.700026304111816e-05
aF6.000008943374269e-05
aF6.30003705737181e-05
aF6.60001314827241e-05
aF6.900051812408492e-05
aF7.200028630904853e-05
aF7.500005449401215e-05
aF7.800044113537297e-05
aF8.100020204437897e-05
aF8.399999933317304e-05
aF8.700058970134705e-05
aF9.000035061035305e-05
aF9.300035890191793e-05
aF9.600031626177952e-05
aF9.900020813802257e-05
aF0.00010200030374107882
aF0.00010500017378944904
aF0.00010800033487612382
aF0.00011100041592726484
aF0.00011400008952477947
aF0.00011700044706230983
aF0.00012000027345493436
aF0.00012300013622734696
aF0.00012600026093423367
aF0.00012900016736239195
aF0.00013200053945183754
aF0.00013500027125701308
aF0.00013800000306218863
aF0.00014100037515163422
aF0.00014400010695680976
aF0.00014700047904625535
aF0.00015000009443610907
aF0.00015300046652555466
aF0.0001560001983307302
aF0.0001590005704201758
aF0.00016200030222535133
aF0.00016500003403052688
aF0.00016800040611997247
aF0.000171000137925148
aF0.0001740005100145936
aF0.00017700024181976914
aF0.00018000061390921474
aF0.00018300034571439028
aF0.00018600007751956582
aF0.0001890004496090114
aF0.00019200018141418695
aF0.00019500055350363255
aF0.0001980002853088081
aF0.00020100001711398363
aF0.00020400038920342922
aF0.00020700012100860476
aF0.00021000049309805036
aF0.0002130002249032259
aF0.0002160005969926715
aF0.00021900032879784703
aF0.00022200006060302258
aF0.00022500043269246817
aF0.0002280001644976437
aF0.0002310005365870893
aF0.00023400026839226484
aF0.00023700064048171043
aF0.00024000037228688598
aF0.00024300010409206152
aF0.0002460004761815071
aF0.00024900020798668265
aF0.00025200058007612824
aF0.0002550003118813038
aF0.00025800004368647933
aF0.0002610004157759249
aF0.00026400014758110046
aF0.00026700051967054605
aF0.0002700002514757216
aF0.0002730006235651672
aF0.00027600035537034273
aF0.0002790000871755183
aF0.00028200045926496387
aF0.0002850001910701394
aF0.000288000563159585
aF0.00029100029496476054
aF0.0002940000267699361
aF0.0002970003988593817
aF0.0003000001306645572
aF0.0003030005027540028
aF0.00030600023455917835
aF0.00030900060664862394
aF0.0003120003384537995
aF0.00031500007025897503
aF0.0003180004423484206
aF0.00032100017415359616
aF0.00032400054624304175
aF0.0003270002780482173
aF0.00033000000985339284
aF0.00033300038194283843
aF0.000336000113748014
aF0.00033900048583745956
aF0.0003420002176426351
aF0.0003450005897320807
aF0.00034800032153725624
aF0.0003510000533424318
aF0.0003540004254318774
aF0.0003570001572370529
aF0.0003600005293264985
aF0.00036300026113167405
aF0.00036600063322111964
aF0.0003690003650262952
aF0.00037200009683147073
aF0.0003750004689209163
aF0.00037800020072609186
aF0.00038100057281553745
aF0.000384000304620713
aF0.00038700003642588854
aF0.00039000040851533413
aF0.00039300014032050967
aF0.00039600051240995526
aF0.0003990002442151308
aF0.0004020006163045764
aF0.00040500034810975194
aF0.0004080000799149275
aF0.0004110004520043731
aF0.0004140001838095486
aF0.0004170005558989942
aF0.00042000028770416975
aF0.0004230000195093453
aF0.0004260003915987909
aF0.0004290001234039664
aF0.000432000495493412
aF0.00043500022729858756
aF0.00043800059938803315
aF0.0004410003311932087
aF0.00044400006299838424
aF0.00044700043508782983
aF0.00045000016689300537
aF0.00045300053898245096
aF0.0004560002707876265
aF0.00045900000259280205
aF0.00046200037468224764
aF0.0004650001064874232
aF0.00046800047857686877
aF0.0004710002103820443
aF0.0004740005824714899
aF0.00047700031427666545
aF0.000480000046081841
aF0.0004830004181712866
aF0.0004860001499764621
aF0.0004890005220659077
aF0.0004920002538710833
aF0.0004950006259605289
aF0.0004980003577657044
aF0.0005010000895708799
aF0.0005040004616603255
aF0.0005070001934655011
aF0.0005100005655549467
aF0.0005130002973601222
aF0.0005160000291652977
aF0.0005190004012547433
aF0.0005220001330599189
aF0.0005250005051493645
aF0.00052800023695454
aF0.0005310006090439856
aF0.0005340003408491611
aF0.0005370000726543367
aF0.0005400004447437823
aF0.0005430001765489578
aF0.0005460005486384034
aF0.000549000280443579
aF0.0005520000122487545
aF0.0005550003843382001
aF0.0005580001161433756
aF0.0005610004882328212
aF0.0005640002200379968
aF0.0005670005921274424
aF0.0005700003239326179
aF0.0005730000557377934
aF0.000576000427827239
aF0.0005790001596324146
aF0.0005820005317218602
aF0.0005850002635270357
aF0.0005879999953322113
aF0.0005910003674216568
aF0.0005940000992268324
aF0.000597000471316278
aF0.0006000002031214535
aF0.0006030005752108991
aF0.0006060003070160747
aF0.0006090000388212502
aF0.0006120004109106958
aF0.0006150001427158713
aF0.0006180005148053169
aF0.0006210002466104925
aF0.0006240006186999381
aF0.0006270003505051136
aF0.0006300000823102891
aF0.0006330004543997347
aF0.0006360001862049103
aF0.0006390005582943559
aF0.0006420002900995314
aF0.000645000021904707
aF0.0006480003939941525
aF0.0006510001257993281
aF0.0006540004978887737
aF0.0006570002296939492
aF0.0006600006017833948
aF0.0006630003335885704
aF0.0006660000653937459
aF0.0006690004374831915
aF0.000672000169288367
aF0.0006750005413778126
aF0.0006780002731829882
aF0.0006810000049881637
aF0.0006840003770776093
aF0.0006870001088827848
aF0.0006900004809722304
aF0.000693000212777406
aF0.0006960005848668516
aF0.0006990003166720271
aF0.0007020000484772027
aF0.0007050004205666482
aF0.0007080001523718238
aF0.0007110005244612694
aF0.0007140002562664449
aF0.0007170006283558905
aF0.0007200003601610661
aF0.0007230000919662416
aF0.0007260004640556872
aF0.0007290001958608627
aF0.0007320005679503083
aF0.0007350002997554839
aF0.0007380000315606594
aF0.000741000403650105
aF0.0007440001354552805
aF0.0007470005075447261
aF0.0007500002393499017
aF0.0007530006114393473
aF0.0007560003432445228
aF0.0007590000750496984
aF0.0007620004471391439
aF0.0007650001789443195
aF0.0007680005510337651
aF0.0007710002828389406
aF0.0007740000146441162
aF0.0007770003867335618
aF0.0007800001185387373
aF0.0007830004906281829
aF0.0007860002224333584
aF0.000789000594522804
aF0.0007920003263279796
aF0.0007950000581331551
aF0.0007980004302226007
aF0.0008010001620277762
aF0.0008040005341172218
aF0.0008070002659223974
aF0.000810000638011843
aF0.0008130003698170185
aF0.000816000101622194
aF0.0008190004737116396
aF0.0008220002055168152
aF0.0008250005776062608
aF0.0008280003094114363
aF0.0008310000412166119
aF0.0008340004133060575
aF0.000837000145111233
aF0.0008400005172006786
aF0.0008430002490058541
aF0.0008460006210952997
aF0.0008490003529004753
aF0.0008520000847056508
aF0.0008550004567950964
aF0.0008580001886002719
aF0.0008610005606897175
aF0.0008640002924948931
aF0.0008670000243000686
aF0.0008700003963895142
aF0.0008730001281946898
aF0.0008760005002841353
aF0.0008790002320893109
aF0.0008820006041787565
aF0.000885000335983932
aF0.0008880000677891076
aF0.0008910004398785532
aF0.0008940001716837287
aF0.0008970005437731743
aF0.0009000002755783498
aF0.0009030000073835254
aF0.000906000379472971
aF0.0009090001112781465
aF0.0009120004833675921
aF0.0009150002151727676
aF0.0009180005872622132
aF0.0009210003190673888
aF0.0009240000508725643
aF0.0009270004229620099
aF0.0009300001547671854
aF0.000933000526856631
aF0.0009360002586618066
aF0.0009390006307512522
aF0.0009420003625564277
aF0.0009450000943616033
aF0.0009480004664510489
aF0.0009510001982562244
aF0.00095400057034567
aF0.0009570003021508455
aF0.0009600000339560211
aF0.0009630004060454667
aF0.0009660001378506422
aF0.0009690005099400878
aF0.0009720002417452633
aF0.0009750006138347089
aF0.0009780004620552063
aF0.0009810004848986864
aF0.0009840005077421665
aF0.0009870005305856466
aF0.0009900005534291267
aF0.0009930005762726068
aF0.000996000599116087
aF0.000999000621959567
aF0.0010020006448030472
aF0.0010050006676465273
aF0.0010079999919980764
aF0.0010110000148415565
aF0.0010140000376850367
aF0.0010170000605285168
aF0.0010200000833719969
aF0.001023000106215477
aF0.001026000129058957
aF0.0010290001519024372
aF0.0010320001747459173
aF0.0010350001975893974
aF0.0010380002204328775
aF0.0010410002432763577
aF0.0010440002661198378
aF0.0010470002889633179
aF0.001050000311806798
aF0.001053000334650278
aF0.0010560003574937582
aF0.0010590003803372383
aF0.0010620004031807184
aF0.0010650004260241985
aF0.0010680004488676786
aF0.0010710004717111588
aF0.0010740004945546389
aF0.001077000517398119
aF0.001080000540241599
aF0.0010830005630850792
aF0.0010860005859285593
aF0.0010890006087720394
aF0.0010920006316155195
aF0.0010950006544589996
aF0.0010980006773024797
aF0.001101000001654029
aF0.001104000024497509
aF0.0011070000473409891
aF0.0011100000701844692
aF0.0011130000930279493
aF0.0011160001158714294
aF0.0011190001387149096
aF0.0011220001615583897
aF0.0011250001844018698
aF0.0011280002072453499
aF0.00113100023008883
aF0.00113400025293231
aF0.0011370002757757902
aF0.0011400002986192703
aF0.0011430003214627504
aF0.0011460003443062305
aF0.0011490003671497107
aF0.0011520003899931908
aF0.0011550004128366709
aF0.001158000435680151
aF0.001161000458523631
aF0.0011640004813671112
aF0.0011670005042105913
aF0.0011700005270540714
aF0.0011730005498975515
aF0.0011760005727410316
aF0.0011790005955845118
aF0.0011820006184279919
aF0.001185000641271472
aF0.001188000664114952
aF0.0011909999884665012
aF0.0011940000113099813
aF0.0011970000341534615
aF0.0012000000569969416
aF0.0012030000798404217
aF0.0012060001026839018
aF0.001209000125527382
aF0.001212000148370862
aF0.0012150001712143421
aF0.0012180001940578222
aF0.0012210002169013023
aF0.0012240002397447824
aF0.0012270002625882626
aF0.0012300002854317427
aF0.0012330003082752228
aF0.0012360003311187029
aF0.001239000353962183
aF0.0012420003768056631
aF0.0012450003996491432
aF0.0012480004224926233
aF0.0012510004453361034
aF0.0012540004681795835
aF0.0012570004910230637
aF0.0012600005138665438
aF0.0012630005367100239
aF0.001266000559553504
aF0.001269000582396984
aF0.0012720006052404642
aF0.0012750006280839443
aF0.0012780006509274244
aF0.0012810006737709045
aF0.0012839999981224537
aF0.0012870000209659338
aF0.001290000043809414
aF0.001293000066652894
aF0.0012960000894963741
aF0.0012990001123398542
aF0.0013020001351833344
aF0.0013050001580268145
aF0.0013080001808702946
aF0.0013110002037137747
aF0.0013140002265572548
aF0.001317000249400735
aF0.001320000272244215
aF0.0013230002950876951
aF0.0013260003179311752
aF0.0013290003407746553
aF0.0013320003636181355
aF0.0013350003864616156
aF0.0013380004093050957
aF0.0013410004321485758
aF0.001344000454992056
aF0.001347000477835536
aF0.0013500005006790161
aF0.0013530005235224962
aF0.0013560005463659763
aF0.0013590005692094564
aF0.0013620005920529366
aF0.0013650006148964167
aF0.0013680006377398968
aF0.0013710006605833769
aF0.001374000683426857
aF0.0013770000077784061
aF0.0013800000306218863
aF0.0013830000534653664
aF0.0013860000763088465
aF0.0013890000991523266
aF0.0013920001219958067
aF0.0013950001448392868
aF0.001398000167682767
aF0.001401000190526247
aF0.0014040002133697271
aF0.0014070002362132072
aF0.0014100002590566874
aF0.0014130002819001675
aF0.0014160003047436476
aF0.0014190003275871277
aF0.0014220003504306078
aF0.001425000373274088
aF0.001428000396117568
aF0.0014310004189610481
aF0.0014340004418045282
aF0.0014370004646480083
aF0.0014400004874914885
aF0.0014430005103349686
aF0.0014460005331784487
aF0.0014490005560219288
aF0.001452000578865409
aF0.001455000601708889
aF0.0014580006245523691
aF0.0014610006473958492
aF0.0014640006702393293
aF0.0014669999945908785
aF0.0014700000174343586
aF0.0014730000402778387
aF0.0014760000631213188
aF0.001479000085964799
aF0.001482000108808279
aF0.0014850001316517591
aF0.0014880001544952393
aF0.0014910001773387194
aF0.0014940002001821995
aF0.0014970002230256796
aF0.0015000002458691597
aF0.0015030002687126398
aF0.00150600029155612
aF0.0015090003143996
aF0.0015120003372430801
aF0.0015150003600865602
aF0.0015180003829300404
aF0.0015210004057735205
aF0.0015240004286170006
aF0.0015270004514604807
aF0.0015300004743039608
aF0.001533000497147441
aF0.001536000519990921
aF0.0015390005428344011
aF0.0015420005656778812
aF0.0015450005885213614
aF0.0015480006113648415
aF0.0015510006342083216
aF0.0015540006570518017
aF0.0015570006798952818
aF0.001560000004246831
aF0.001563000027090311
aF0.0015660000499337912
aF0.0015690000727772713
aF0.0015720000956207514
aF0.0015750001184642315
aF0.0015780001413077116
aF0.0015810001641511917
aF0.0015840001869946718
aF0.001587000209838152
aF0.001590000232681632
aF0.0015930002555251122
aF0.0015960002783685923
aF0.0015990003012120724
aF0.0016020003240555525
aF0.0016050003468990326
aF0.0016080003697425127
aF0.0016110003925859928
aF0.001614000415429473
aF0.001617000438272953
aF0.0016200004611164331
aF0.0016230004839599133
aF0.0016260005068033934
aF0.0016290005296468735
aF0.0016320005524903536
aF0.0016350005753338337
aF0.0016380005981773138
aF0.001641000621020794
aF0.001644000643864274
aF0.0016470006667077541
aF0.0016500006895512342
aF0.0016530000139027834
aF0.0016560000367462635
aF0.0016590000595897436
aF0.0016620000824332237
aF0.0016650001052767038
aF0.001668000128120184
aF0.001671000150963664
aF0.0016740001738071442
aF0.0016770001966506243
aF0.0016800002194941044
aF0.0016830002423375845
aF0.0016860002651810646
aF0.0016890002880245447
aF0.0016920003108680248
aF0.001695000333711505
aF0.001698000356554985
aF0.0017010003793984652
aF0.0017040004022419453
aF0.0017070004250854254
aF0.0017100004479289055
aF0.0017130004707723856
aF0.0017160004936158657
aF0.0017190005164593458
aF0.001722000539302826
aF0.001725000562146306
aF0.0017280005849897861
aF0.0017310006078332663
aF0.0017340006306767464
aF0.0017370006535202265
aF0.0017400006763637066
aF0.0017430006992071867
aF0.0017460000235587358
aF0.001749000046402216
aF0.001752000069245696
aF0.0017550000920891762
aF0.0017580001149326563
aF0.0017610001377761364
aF0.0017640001606196165
aF0.0017670001834630966
aF0.0017700002063065767
aF0.0017730002291500568
aF0.001776000251993537
aF0.001779000274837017
aF0.0017820002976804972
aF0.0017850003205239773
aF0.0017880003433674574
aF0.0017910003662109375
aF0.0017940003890544176
aF0.0017970004118978977
aF0.0018000004347413778
aF0.001803000457584858
aF0.001806000480428338
aF0.0018090005032718182
aF0.0018120005261152983
aF0.0018150005489587784
aF0.0018180005718022585
aF0.0018210005946457386
aF0.0018240006174892187
aF0.0018270006403326988
aF0.001830000663176179
aF0.001833000686019659
aF0.0018360000103712082
aF0.0018390000332146883
aF0.0018420000560581684
aF0.0018450000789016485
aF0.0018480001017451286
aF0.0018510001245886087
aF0.0018540001474320889
aF0.001857000170275569
aF0.001860000193119049
aF0.0018630002159625292
aF0.0018660002388060093
aF0.0018690002616494894
aF0.0018720002844929695
aF0.0018750003073364496
aF0.0018780003301799297
aF0.0018810003530234098
aF0.00188400037586689
aF0.00188700039871037
aF0.0018900004215538502
aF0.0018930004443973303
aF0.0018960004672408104
aF0.0018990004900842905
aF0.0019020005129277706
aF0.0019050005357712507
aF0.0019080005586147308
aF0.001911000581458211
aF0.001914000604301691
aF0.0019170006271451712
aF0.0019200006499886513
aF0.0019230006728321314
aF0.0019260006956756115
aF0.0019290000200271606
aF0.0019320000428706408
aF0.0019350000657141209
aF0.001938000088557601
aF0.001941000111401081
aF0.0019440001342445612
aF0.0019470001570880413
aF0.0019500001799315214
aF0.0019530002027750015
aF0.0019560002256184816
aF0.0019590002484619617
aF0.001962000271305442
aF0.001965000294148922
aF0.001968000316992402
aF0.001971000339835882
aF0.0019740003626793623
aF0.0019770003855228424
aF0.0019800004083663225
aF0.0019830004312098026
aF0.0019860004540532827
aF0.001989000476896763
aF0.001992000499740243
aF0.001995000522583723
aF0.001998000545427203
aF0.0020010005682706833
aF0.0020040005911141634
aF0.0020070006139576435
aF0.0020100006368011236
aF0.0020129999611526728
aF0.002015999983996153
aF0.002019000006839633
aF0.002022000029683113
aF0.002025000052526593
aF0.0020280000753700733
aF0.0020310000982135534
aF0.0020340001210570335
aF0.0020370001439005136
aF0.0020400001667439938
aF0.002043000189587474
aF0.002046000212430954
aF0.002049000235274434
aF0.002052000258117914
aF0.0020550002809613943
aF0.0020580003038048744
aF0.0020610003266483545
aF0.0020640003494918346
aF0.0020670003723353148
aF0.002070000395178795
aF0.002073000418022275
aF0.002076000440865755
aF0.002079000463709235
aF0.0020820004865527153
aF0.0020850005093961954
aF0.0020880005322396755
aF0.0020910005550831556
aF0.0020940005779266357
aF0.002097000600770116
aF0.002100000623613596
aF0.002103000646457076
aF0.0021059999708086252
aF0.0021089999936521053
aF0.0021120000164955854
aF0.0021150000393390656
aF0.0021180000621825457
aF0.0021210000850260258
aF0.002124000107869506
aF0.002127000130712986
aF0.002130000153556466
aF0.002133000176399946
aF0.0021360001992434263
aF0.0021390002220869064
aF0.0021420002449303865
aF0.0021450002677738667
aF0.0021480002906173468
aF0.002151000313460827
aF0.002154000336304307
aF0.002157000359147787
aF0.002160000381991267
aF0.0021630004048347473
aF0.0021660004276782274
aF0.0021690004505217075
aF0.0021720004733651876
aF0.0021750004962086678
aF0.002178000519052148
aF0.002181000541895628
aF0.002184000564739108
aF0.002187000587582588
aF0.0021900006104260683
aF0.0021930006332695484
aF0.0021960006561130285
aF0.0021989999804645777
aF0.002202000003308058
aF0.002205000026151538
aF0.002208000048995018
aF0.002211000071838498
aF0.0022140000946819782
aF0.0022170001175254583
aF0.0022200001403689384
aF0.0022230001632124186
aF0.0022260001860558987
aF0.0022290002088993788
aF0.002232000231742859
aF0.002235000254586339
aF0.002238000277429819
aF0.0022410003002732992
aF0.0022440003231167793
aF0.0022470003459602594
aF0.0022500003688037395
aF0.0022530003916472197
aF0.0022560004144906998
aF0.00225900043733418
aF0.00226200046017766
aF0.00226500048302114
aF0.00226800050586462
aF0.0022710005287081003
aF0.0022740005515515804
aF0.0022770005743950605
aF0.0022800005972385406
aF0.0022830006200820208
aF0.002286000642925501
aF0.00228899996727705
aF0.00229199999012053
aF0.0022950000129640102
aF0.0022980000358074903
aF0.0023010000586509705
aF0.0023040000814944506
aF0.0023070001043379307
aF0.002310000127181411
aF0.002313000150024891
aF0.002316000172868371
aF0.002319000195711851
aF0.0023220002185553312
aF0.0023250002413988113
aF0.0023280002642422915
aF0.0023310002870857716
aF0.0023340003099292517
aF0.0023370003327727318
aF0.002340000355616212
aF0.002343000378459692
aF0.002346000401303172
aF0.0023490004241466522
aF0.0023520004469901323
aF0.0023550004698336124
aF0.0023580004926770926
aF0.0023610005155205727
aF0.0023640005383640528
aF0.002367000561207533
aF0.002370000584051013
aF0.002373000606894493
aF0.002376000629737973
aF0.0023790006525814533
aF0.0023819999769330025
aF0.0023849999997764826
aF0.0023880000226199627
aF0.002391000045463443
aF0.002394000068306923
aF0.002397000091150403
aF0.002400000113993883
aF0.0024030001368373632
aF0.0024060001596808434
aF0.0024090001825243235
aF0.0024120002053678036
aF0.0024150002282112837
aF0.002418000251054764
aF0.002421000273898244
aF0.002424000296741724
aF0.002427000319585204
aF0.0024300003424286842
aF0.0024330003652721643
aF0.0024360003881156445
aF0.0024390004109591246
aF0.0024420004338026047
aF0.002445000456646085
aF0.002448000479489565
aF0.002451000502333045
aF0.002454000525176525
aF0.0024570005480200052
aF0.0024600005708634853
aF0.0024630005937069654
aF0.0024660006165504456
aF0.0024690006393939257
aF0.0024720006622374058
aF0.002474999986588955
aF0.002478000009432435
aF0.002481000032275915
aF0.0024840000551193953
aF0.0024870000779628754
aF0.0024900001008063555
aF0.0024930001236498356
aF0.0024960001464933157
aF0.002499000169336796
aF0.002502000192180276
aF0.002505000215023756
aF0.002508000237867236
aF0.0025110002607107162
aF0.0025140002835541964
aF0.0025170003063976765
aF0.0025200003292411566
aF0.0025230003520846367
aF0.002526000374928117
aF0.002529000397771597
aF0.002532000420615077
aF0.002535000443458557
aF0.0025380004663020372
aF0.0025410004891455173
aF0.0025440005119889975
aF0.0025470005348324776
aF0.0025500005576759577
aF0.002553000580519438
aF0.002556000603362918
aF0.002559000626206398
aF0.002562000649049878
aF0.0025650006718933582
aF0.0025679999962449074
aF0.0025710000190883875
aF0.0025740000419318676
aF0.0025770000647753477
aF0.002580000087618828
aF0.002583000110462308
aF0.002586000133305788
aF0.002589000156149268
aF0.0025920001789927483
aF0.0025950002018362284
aF0.0025980002246797085
aF0.0026010002475231886
aF0.0026040002703666687
aF0.002607000293210149
aF0.002610000316053629
aF0.002613000338897109
aF0.002616000361740589
aF0.0026190003845840693
aF0.0026220004074275494
aF0.0026250004302710295
aF0.0026280004531145096
aF0.0026310004759579897
aF0.00263400049880147
aF0.00263700052164495
aF0.00264000054448843
aF0.00264300056733191
aF0.0026460005901753902
aF0.0026490006130188704
aF0.0026520006358623505
aF0.0026550006587058306
aF0.0026579999830573797
aF0.00266100000590086
aF0.00266400002874434
aF0.00266700005158782
aF0.0026700000744313
aF0.0026730000972747803
aF0.0026760001201182604
aF0.0026790001429617405
aF0.0026820001658052206
aF0.0026850001886487007
aF0.002688000211492181
aF0.002691000234335661
aF0.002694000257179141
aF0.002697000280022621
aF0.0027000003028661013
aF0.0027030003257095814
aF0.0027060003485530615
aF0.0027090003713965416
aF0.0027120003942400217
aF0.002715000417083502
aF0.002718000439926982
aF0.002721000462770462
aF0.002724000485613942
aF0.0027270005084574223
aF0.0027300005313009024
aF0.0027330005541443825
aF0.0027360005769878626
aF0.0027390005998313427
aF0.002742000622674823
aF0.002745000645518303
aF0.002748000668361783
aF0.002750999992713332
aF0.0027540000155568123
aF0.0027570000384002924
aF0.0027600000612437725
aF0.0027630000840872526
aF0.0027660001069307327
aF0.002769000129774213
aF0.002772000152617693
aF0.002775000175461173
aF0.002778000198304653
aF0.0027810002211481333
aF0.0027840002439916134
aF0.0027870002668350935
aF0.0027900002896785736
aF0.0027930003125220537
aF0.002796000335365534
aF0.002799000358209014
aF0.002802000381052494
aF0.002805000403895974
aF0.0028080004267394543
aF0.0028110004495829344
aF0.0028140004724264145
aF0.0028170004952698946
aF0.0028200005181133747
aF0.002823000540956855
aF0.002826000563800335
aF0.002829000586643815
aF0.002832000609487295
aF0.0028350006323307753
aF0.0028380006551742554
aF0.0028410006780177355
aF0.0028440000023692846
aF0.0028470000252127647
aF0.002850000048056245
aF0.002853000070899725
aF0.002856000093743205
aF0.002859000116586685
aF0.0028620001394301653
aF0.0028650001622736454
aF0.0028680001851171255
aF0.0028710002079606056
aF0.0028740002308040857
aF0.002877000253647566
aF0.002880000276491046
aF0.002883000299334526
aF0.002886000322178006
aF0.0028890003450214863
aF0.0028920003678649664
aF0.0028950003907084465
aF0.0028980004135519266
aF0.0029010004363954067
aF0.002904000459238887
aF0.002907000482082367
aF0.002910000504925847
aF0.002913000527769327
aF0.0029160005506128073
aF0.0029190005734562874
aF0.0029220005962997675
aF0.0029250006191432476
aF0.0029280006419867277
aF0.002931000664830208
aF0.002933999989181757
aF0.002937000012025237
aF0.002940000034868717
aF0.0029430000577121973
aF0.0029460000805556774
aF0.0029490001033991575
aF0.0029520001262426376
aF0.0029550001490861177
aF0.002958000171929598
aF0.002961000194773078
aF0.002964000217616558
aF0.002967000240460038
aF0.0029700002633035183
aF0.0029730002861469984
aF0.0029760003089904785
aF0.0029790003318339586
aF0.0029820003546774387
aF0.002985000377520919
aF0.002988000400364399
aF0.002991000423207879
aF0.002994000446051359
aF0.0029970004688948393
aF0.003000000026077032
a(lp2
F0.0
aF0.0
aF-4.414942793573573e-07
aF-0.48957589268684387
aF-0.6816161870956421
aF-1.0267096757888794
aF-1.1387062072753906
aF-1.5556514263153076
aF-1.8825531005859375
aF-2.1086249351501465
aF-2.2282586097717285
aF-2.6041831970214844
aF-2.7685272693634033
aF-2.947585344314575
aF-3.1784539222717285
aF-3.252420425415039
aF-3.530045509338379
aF-3.6272542476654053
aF-3.8571207523345947
aF-4.041877746582031
aF-4.22350549697876
aF-4.304944038391113
aF-4.4790143966674805
aF-4.625792503356934
aF-4.692363262176514
aF-4.9371819496154785
aF-5.034066677093506
aF-5.154708385467529
aF-5.348448753356934
aF-5.38813591003418
aF-5.458367824554443
aF-5.57744836807251
aF-5.567971229553223
aF-5.592072486877441
aF-5.703385353088379
aF-5.740220546722412
aF-5.7689127922058105
aF-5.796765327453613
aF-5.702424049377441
aF-5.665783882141113
aF-5.744414806365967
aF-5.72620964050293
aF-5.690250873565674
aF-5.773770809173584
aF-5.602161884307861
aF-5.671812057495117
aF-5.685253620147705
aF-5.638758659362793
aF-5.822016716003418
aF-5.627507209777832
aF-5.604673385620117
aF-5.639055252075195
aF-5.653256893157959
aF-5.628055095672607
aF-5.65024471282959
aF-5.643798828125
aF-5.813098430633545
aF-5.643446922302246
aF-5.6678972244262695
aF-5.661911487579346
aF-5.651503086090088
aF-5.634986400604248
aF-5.624846935272217
aF-5.6210198402404785
aF-5.6125688552856445
aF-5.600970268249512
aF-5.5933966636657715
aF-5.574154376983643
aF-5.56503438949585
aF-5.546902179718018
aF-5.558700084686279
aF-5.544759273529053
aF-5.501821994781494
aF-5.543688774108887
aF-5.529669284820557
aF-5.502524375915527
aF-5.4834794998168945
aF-5.4646735191345215
aF-5.477543830871582
aF-5.497931480407715
aF-5.710655689239502
aF-5.4748616218566895
aF-5.430449962615967
aF-5.472711086273193
aF-5.410696029663086
aF-5.4571356773376465
aF-5.439629077911377
aF-5.473893165588379
aF-5.418652057647705
aF-5.4391961097717285
aF-5.474624156951904
aF-5.445550441741943
aF-5.423341274261475
aF-5.416625022888184
aF-5.405913352966309
aF-5.410153865814209
aF-5.423745632171631
aF-5.405555248260498
aF-5.360385417938232
aF-5.0812506675720215
aF-5.305232524871826
aF-5.297867298126221
aF-5.303896903991699
aF-5.3556342124938965
aF-5.313157558441162
aF-5.306814670562744
aF-5.390115261077881
aF-5.39076566696167
aF-5.382452964782715
aF-5.416543483734131
aF-5.36232852935791
aF-5.408083438873291
aF-5.373135566711426
aF-5.408804416656494
aF-5.425684452056885
aF-5.359755516052246
aF-5.411086559295654
aF-5.396735668182373
aF-5.397324562072754
aF-5.341616630554199
aF-5.341607570648193
aF-5.296919345855713
aF-5.216281414031982
aF-5.397224426269531
aF-5.299736499786377
aF-5.323846340179443
aF-5.300032138824463
aF-5.317203998565674
aF-5.331178188323975
aF-5.332892894744873
aF-5.304315567016602
aF-5.300967216491699
aF-5.336789131164551
aF-5.296820163726807
aF-5.344346523284912
aF-5.307885646820068
aF-5.334165573120117
aF-5.32024621963501
aF-5.315976142883301
aF-5.287095069885254
aF-5.319307804107666
aF-5.284486770629883
aF-5.3235344886779785
aF-5.3380255699157715
aF-5.347177505493164
aF-5.3670878410339355
aF-5.285267353057861
aF-5.309824466705322
aF-5.3261213302612305
aF-5.278353691101074
aF-5.300593376159668
aF-5.2989935874938965
aF-5.274130344390869
aF-5.247352123260498
aF-5.281582355499268
aF-5.240781784057617
aF-5.246120929718018
aF-5.281062602996826
aF-5.279143810272217
aF-5.265609264373779
aF-5.253597736358643
aF-5.19045352935791
aF-5.240272045135498
aF-5.22615385055542
aF-5.2129106521606445
aF-5.22846794128418
aF-5.245021820068359
aF-5.254612445831299
aF-5.199846267700195
aF-5.291477680206299
aF-5.215202808380127
aF-5.228456974029541
aF-5.200736045837402
aF-5.191548824310303
aF-5.2014288902282715
aF-5.148286819458008
aF-5.185152530670166
aF-5.171532154083252
aF-5.145411968231201
aF-5.213198184967041
aF-5.179031848907471
aF-5.1935715675354
aF-5.190399646759033
aF-5.237457275390625
aF-5.207164764404297
aF-5.185486316680908
aF-5.172253131866455
aF-5.170166492462158
aF-5.198917865753174
aF-5.092891693115234
aF-5.158193588256836
aF-5.165253639221191
aF-5.162593841552734
aF-5.1469950675964355
aF-5.0907111167907715
aF-5.103608131408691
aF-5.160298824310303
aF-5.113586902618408
aF-5.117824077606201
aF-5.136679649353027
aF-5.11337947845459
aF-5.1255974769592285
aF-5.124698162078857
aF-5.081198692321777
aF-5.097394943237305
aF-5.096941947937012
aF-5.096235275268555
aF-5.070666313171387
aF-5.0704803466796875
aF-5.085216045379639
aF-5.050933361053467
aF-5.081277847290039
aF-5.065079212188721
aF-5.064422607421875
aF-5.075687885284424
aF-5.117191791534424
aF-5.065853595733643
aF-5.121654033660889
aF-5.077067852020264
aF-5.052939414978027
aF-5.095032691955566
aF-5.090240955352783
aF-5.066349983215332
aF-5.061018466949463
aF-5.087026119232178
aF-5.063210964202881
aF-5.065537929534912
aF-5.060101509094238
aF-5.0423102378845215
aF-4.980912685394287
aF-5.07335901260376
aF-5.062260150909424
aF-5.047235012054443
aF-5.031384468078613
aF-5.063191890716553
aF-5.029820442199707
aF-5.039823055267334
aF-5.0324387550354
aF-5.040148735046387
aF-5.049439907073975
aF-5.00046968460083
aF-5.048440456390381
aF-5.059263229370117
aF-5.021274566650391
aF-5.0064616203308105
aF-4.99992561340332
aF-4.983019828796387
aF-5.0401740074157715
aF-5.0128350257873535
aF-5.0119147300720215
aF-5.017770290374756
aF-4.973189830780029
aF-5.017078876495361
aF-4.99002742767334
aF-4.995352268218994
aF-5.019906520843506
aF-5.025527477264404
aF-5.073635578155518
aF-5.012740135192871
aF-4.983948707580566
aF-5.027989864349365
aF-5.037895679473877
aF-4.990050315856934
aF-5.010029315948486
aF-4.98917818069458
aF-4.993351936340332
aF-5.03290319442749
aF-4.958569049835205
aF-4.97987699508667
aF-4.985619068145752
aF-5.015977382659912
aF-4.998687744140625
aF-5.032333850860596
aF-4.968446254730225
aF-4.969224452972412
aF-5.002837181091309
aF-5.010157108306885
aF-4.987884998321533
aF-4.998189449310303
aF-4.99539041519165
aF-4.990864276885986
aF-5.0278849601745605
aF-5.007439136505127
aF-5.039312362670898
aF-4.97733736038208
aF-5.004915714263916
aF-4.983382225036621
aF-4.985536575317383
aF-4.976189613342285
aF-4.980021953582764
aF-4.99320650100708
aF-5.016961097717285
aF-4.970372676849365
aF-5.0280680656433105
aF-4.9920125007629395
aF-4.980391025543213
aF-4.9486260414123535
aF-5.0291314125061035
aF-4.960694313049316
aF-4.98164701461792
aF-4.951523303985596
aF-4.95753288269043
aF-4.9496588706970215
aF-5.082665920257568
aF-4.9996771812438965
aF-4.938561916351318
aF-5.0073089599609375
aF-5.010486602783203
aF-4.970075607299805
aF-4.95548152923584
aF-4.984414577484131
aF-4.955589294433594
aF-4.954959869384766
aF-4.976544380187988
aF-4.951045036315918
aF-4.928872108459473
aF-4.981581211090088
aF-4.813670635223389
aF-4.981451034545898
aF-4.973048210144043
aF-4.944960594177246
aF-4.973684787750244
aF-4.9613847732543945
aF-5.146766662597656
aF-4.964955806732178
aF-4.928299427032471
aF-4.979035377502441
aF-4.989075183868408
aF-4.972875595092773
aF-4.954375743865967
aF-4.894649028778076
aF-4.97322416305542
aF-4.899895668029785
aF-4.954298496246338
aF-4.941857814788818
aF-4.965695381164551
aF-4.967069149017334
aF-4.949832916259766
aF-4.961303234100342
aF-4.960831642150879
aF-4.870009422302246
aF-4.92592191696167
aF-4.9191412925720215
aF-4.928561210632324
aF-4.9760518074035645
aF-5.028398036956787
aF-4.933722972869873
aF-4.956368923187256
aF-4.9071197509765625
aF-4.904701232910156
aF-4.9103569984436035
aF-4.9332661628723145
aF-4.884011268615723
aF-4.9171881675720215
aF-4.962868690490723
aF-4.961500644683838
aF-4.973846912384033
aF-4.927760601043701
aF-4.934630870819092
aF-4.941675662994385
aF-4.964322090148926
aF-4.945483684539795
aF-4.907189846038818
aF-5.029284477233887
aF-4.932452201843262
aF-4.91131067276001
aF-4.9412922859191895
aF-4.9569854736328125
aF-4.925327301025391
aF-4.963534832000732
aF-4.987634658813477
aF-4.928054332733154
aF-4.9429850578308105
aF-4.946364879608154
aF-4.96276330947876
aF-4.948945999145508
aF-4.966818332672119
aF-4.928184509277344
aF-4.940006256103516
aF-4.9868340492248535
aF-4.940636157989502
aF-4.942814350128174
aF-4.913394451141357
aF-4.9414286613464355
aF-4.996905326843262
aF-4.973989963531494
aF-4.9674296379089355
aF-4.944281578063965
aF-4.952390193939209
aF-4.921034336090088
aF-4.987515926361084
aF-4.9767303466796875
aF-4.933872699737549
aF-4.9486870765686035
aF-4.969790458679199
aF-4.983961582183838
aF-4.998544692993164
aF-4.98623514175415
aF-4.939695835113525
aF-5.021052837371826
aF-4.969541072845459
aF-4.944786548614502
aF-4.932760715484619
aF-4.942519664764404
aF-4.945005893707275
aF-4.975427627563477
aF-4.97656774520874
aF-4.953928470611572
aF-4.968420028686523
aF-4.916266441345215
aF-4.933239459991455
aF-4.931883811950684
aF-4.9878363609313965
aF-4.946014881134033
aF-4.963015556335449
aF-4.937854766845703
aF-4.960319519042969
aF-4.959423542022705
aF-4.95700216293335
aF-4.97865104675293
aF-4.950380802154541
aF-4.993809700012207
aF-4.944573879241943
aF-4.969766139984131
aF-4.976609706878662
aF-4.9823527336120605
aF-4.957239151000977
aF-4.941617012023926
aF-4.999231338500977
aF-4.9262919425964355
aF-4.980035305023193
aF-4.944086074829102
aF-4.959267616271973
aF-4.93888521194458
aF-4.950899600982666
aF-4.909655570983887
aF-4.945650100708008
aF-4.940834999084473
aF-4.9542012214660645
aF-4.949530601501465
aF-4.998697757720947
aF-4.979400157928467
aF-4.972092628479004
aF-4.95134162902832
aF-4.936272144317627
aF-4.988567352294922
aF-4.951592922210693
aF-4.905712604522705
aF-4.948995590209961
aF-4.935972690582275
aF-4.951595783233643
aF-4.963353157043457
aF-4.979526996612549
aF-4.958678245544434
aF-4.966426372528076
aF-4.9554314613342285
aF-4.953516483306885
aF-5.002192497253418
aF-4.9753098487854
aF-4.953104019165039
aF-4.944930076599121
aF-4.97247314453125
aF-4.948863506317139
aF-4.946038246154785
aF-4.926925182342529
aF-4.958693027496338
aF-4.957025051116943
aF-4.958622455596924
aF-4.946996688842773
aF-4.959773540496826
aF-4.965000629425049
aF-4.976471424102783
aF-4.975721836090088
aF-4.970302581787109
aF-4.953406810760498
aF-4.970005989074707
aF-4.939826488494873
aF-4.944726467132568
aF-4.9538493156433105
aF-4.946762561798096
aF-4.953440189361572
aF-4.9621262550354
aF-4.94840145111084
aF-4.967967510223389
aF-4.950585842132568
aF-4.971656799316406
aF-4.908518314361572
aF-4.969750881195068
aF-4.985799789428711
aF-4.886106491088867
aF-4.910183429718018
aF-4.99713659286499
aF-4.981384754180908
aF-4.951540470123291
aF-4.955391883850098
aF-4.9452385902404785
aF-4.9303059577941895
aF-4.953122138977051
aF-4.985779285430908
aF-4.926429748535156
aF-4.945135593414307
aF-4.961426258087158
aF-4.957672595977783
aF-4.960671424865723
aF-4.974908351898193
aF-4.920619487762451
aF-4.9327826499938965
aF-4.937702655792236
aF-4.937516212463379
aF-4.924840927124023
aF-4.977484226226807
aF-4.966058254241943
aF-4.968851566314697
aF-4.926695346832275
aF-4.938682556152344
aF-4.9651641845703125
aF-4.934420108795166
aF-4.94504976272583
aF-4.961833477020264
aF-4.95065450668335
aF-4.919492244720459
aF-4.967371463775635
aF-4.957052707672119
aF-4.973409175872803
aF-4.918464183807373
aF-4.940962314605713
aF-4.939625263214111
aF-4.929365634918213
aF-4.920736789703369
aF-4.973271369934082
aF-4.930044651031494
aF-4.888073921203613
aF-4.942536354064941
aF-4.889257907867432
aF-4.917336463928223
aF-4.916156768798828
aF-4.943423748016357
aF-4.902922630310059
aF-4.934365272521973
aF-4.918033123016357
aF-4.9886555671691895
aF-4.954233646392822
aF-4.956469535827637
aF-5.014018535614014
aF-5.005484104156494
aF-4.997250556945801
aF-4.961120128631592
aF-5.00006628036499
aF-5.0189738273620605
aF-5.024658679962158
aF-5.021611213684082
aF-4.949749946594238
aF-4.993753910064697
aF-5.019494533538818
aF-4.992269515991211
aF-5.0284552574157715
aF-4.978003978729248
aF-4.997182846069336
aF-5.008289813995361
aF-4.996536731719971
aF-5.000512599945068
aF-5.026518821716309
aF-4.9882493019104
aF-5.028724670410156
aF-5.018801212310791
aF-4.975351810455322
aF-5.007181167602539
aF-5.047370433807373
aF-5.024494647979736
aF-5.0207839012146
aF-5.032797813415527
aF-5.017892360687256
aF-5.0206685066223145
aF-4.991405963897705
aF-5.04777193069458
aF-5.066340923309326
aF-5.014520168304443
aF-5.0551581382751465
aF-5.022644996643066
aF-5.041162490844727
aF-5.022286891937256
aF-5.03765344619751
aF-5.050433158874512
aF-5.028805732727051
aF-5.018590927124023
aF-5.061741352081299
aF-5.037842750549316
aF-5.046494960784912
aF-5.020762920379639
aF-5.049592018127441
aF-5.055281639099121
aF-5.0563249588012695
aF-5.059195518493652
aF-5.049702167510986
aF-5.034918308258057
aF-5.044416904449463
aF-5.063655853271484
aF-5.0771708488464355
aF-5.037569522857666
aF-5.095700263977051
aF-5.069656848907471
aF-5.054821014404297
aF-5.087653636932373
aF-5.086719036102295
aF-5.041964530944824
aF-5.0421624183654785
aF-5.032780170440674
aF-5.045333385467529
aF-5.082845211029053
aF-5.057528018951416
aF-5.0634446144104
aF-5.066425800323486
aF-5.065474033355713
aF-5.074735164642334
aF-5.041026592254639
aF-5.0705437660217285
aF-5.064968585968018
aF-5.066466808319092
aF-5.054129123687744
aF-5.048690319061279
aF-5.062665939331055
aF-5.067658424377441
aF-5.069783687591553
aF-5.054356575012207
aF-5.103728294372559
aF-5.069492816925049
aF-5.110176086425781
aF-5.0788774490356445
aF-5.076132297515869
aF-5.112292766571045
aF-5.117284297943115
aF-5.083837509155273
aF-5.090600490570068
aF-5.089910984039307
aF-5.1092047691345215
aF-5.093946933746338
aF-5.119511127471924
aF-5.113494873046875
aF-5.086307048797607
aF-5.056612968444824
aF-5.088589191436768
aF-5.079722881317139
aF-5.082228183746338
aF-5.091898441314697
aF-5.184490203857422
aF-5.077352046966553
aF-5.069703102111816
aF-5.123806953430176
aF-5.136256217956543
aF-5.101227283477783
aF-5.088608741760254
aF-5.07631254196167
aF-5.082990646362305
aF-5.115500450134277
aF-5.082451820373535
aF-5.061303615570068
aF-5.06383752822876
aF-5.0832085609436035
aF-5.067513942718506
aF-5.084422588348389
aF-5.09088134765625
aF-5.1157121658325195
aF-5.0633344650268555
aF-5.080628395080566
aF-5.058821678161621
aF-5.084869384765625
aF-5.069167613983154
aF-5.106540679931641
aF-5.051908016204834
aF-5.0478034019470215
aF-5.090773105621338
aF-5.054419994354248
aF-5.082203388214111
aF-5.076910972595215
aF-5.073378562927246
aF-5.078709602355957
aF-5.066770553588867
aF-5.0946550369262695
aF-5.078555583953857
aF-5.077999591827393
aF-5.082569599151611
aF-5.094391345977783
aF-5.066895961761475
aF-5.0762858390808105
aF-5.095811367034912
aF-5.065351486206055
aF-5.086259365081787
aF-5.07230806350708
aF-5.093516826629639
aF-5.050552845001221
aF-5.024224758148193
aF-5.05959939956665
aF-5.059036731719971
aF-5.106359958648682
aF-5.039812088012695
aF-5.06990385055542
aF-5.060929775238037
aF-5.0760698318481445
aF-5.020266532897949
aF-5.087031841278076
aF-5.071170330047607
aF-5.062771797180176
aF-5.050360679626465
aF-5.082461357116699
aF-5.080592632293701
aF-5.055987358093262
aF-5.071835041046143
aF-5.024909019470215
aF-5.145469665527344
aF-5.072457790374756
aF-5.112546920776367
aF-5.061458110809326
aF-5.049145221710205
aF-5.070703983306885
aF-5.0510029792785645
aF-5.067652225494385
aF-5.108236312866211
aF-5.080122470855713
aF-5.051374435424805
aF-5.089949131011963
aF-5.070801258087158
aF-5.0720906257629395
aF-5.0744099617004395
aF-5.069372653961182
aF-5.054106712341309
aF-5.06812047958374
aF-5.0518412590026855
aF-5.036130428314209
aF-5.0304179191589355
aF-5.057919025421143
aF-5.062048435211182
aF-5.03355073928833
aF-5.093435287475586
aF-5.067673206329346
aF-5.03436803817749
aF-5.055290699005127
aF-5.062616348266602
aF-5.037765026092529
aF-5.063313007354736
aF-5.043136119842529
aF-5.058821201324463
aF-5.072783470153809
aF-5.061225891113281
aF-5.036824703216553
aF-5.051445960998535
aF-5.0403218269348145
aF-5.074477195739746
aF-5.067687034606934
aF-5.055812835693359
aF-5.084545135498047
aF-5.084256649017334
aF-5.0398783683776855
aF-5.077607154846191
aF-5.035323143005371
aF-5.032688140869141
aF-5.044915676116943
aF-5.065702438354492
aF-5.044400691986084
aF-5.08993673324585
aF-5.046977519989014
aF-5.041795253753662
aF-5.07716178894043
aF-5.024946689605713
aF-5.016312599182129
aF-5.053009510040283
aF-5.041624546051025
aF-5.060274600982666
aF-5.031332015991211
aF-5.016547679901123
aF-5.045903205871582
aF-5.064691066741943
aF-5.046617031097412
aF-5.035642147064209
aF-5.0322160720825195
aF-5.0749359130859375
aF-5.0291643142700195
aF-5.071620464324951
aF-5.066354751586914
aF-5.079491138458252
aF-5.012243270874023
aF-5.011437892913818
aF-5.066744327545166
aF-5.027750492095947
aF-5.065732002258301
aF-5.037842273712158
aF-5.060562610626221
aF-5.076663494110107
aF-5.053445339202881
aF-5.019153118133545
aF-5.06154203414917
aF-5.016849994659424
aF-5.057021141052246
aF-5.045228481292725
aF-5.0678181648254395
aF-5.071588039398193
aF-5.017336845397949
aF-5.057328701019287
aF-5.0408034324646
aF-5.0537495613098145
aF-5.056830883026123
aF-5.050289154052734
aF-4.992845058441162
aF-5.056464672088623
aF-5.052937984466553
aF-5.04010534286499
aF-5.0355095863342285
aF-5.030226230621338
aF-5.040998935699463
aF-5.050214767456055
aF-5.047627925872803
aF-5.049524784088135
aF-5.032293319702148
aF-5.014023780822754
aF-5.032790660858154
aF-5.043767929077148
aF-5.060941219329834
aF-5.039665222167969
aF-5.025095462799072
aF-5.039999485015869
aF-5.060615539550781
aF-5.056253910064697
aF-5.043189525604248
aF-5.061390399932861
aF-5.019646644592285
aF-5.048279285430908
aF-5.064920425415039
aF-5.059584140777588
aF-5.0376763343811035
aF-5.0476861000061035
aF-5.070533275604248
aF-5.058554172515869
aF-5.034213542938232
aF-5.075085639953613
aF-5.062302112579346
aF-5.069143295288086
aF-5.058740139007568
aF-5.060499668121338
aF-5.01651668548584
aF-5.0457234382629395
aF-5.057796955108643
aF-5.070073127746582
aF-5.029237747192383
aF-5.053055286407471
aF-5.0736517906188965
aF-5.04634428024292
aF-5.050817966461182
aF-5.083585262298584
aF-5.041114807128906
aF-5.051878452301025
aF-5.057031631469727
aF-5.064239978790283
aF-5.025217056274414
aF-5.018553256988525
aF-5.040055751800537
aF-5.075459957122803
aF-5.0535197257995605
aF-5.061660289764404
aF-5.056255340576172
aF-5.030398368835449
aF-5.035010814666748
aF-5.04408597946167
aF-5.074016094207764
aF-5.049285411834717
aF-5.0477471351623535
aF-5.07580041885376
aF-5.063692569732666
aF-5.024414539337158
aF-5.043785095214844
aF-5.03765869140625
aF-5.072333812713623
aF-5.026878833770752
aF-5.034622669219971
aF-5.079093933105469
aF-5.037299633026123
aF-5.037730693817139
aF-5.011139869689941
aF-5.062615871429443
aF-5.055472373962402
aF-5.044166088104248
aF-5.0727620124816895
aF-5.0455451011657715
aF-5.030391693115234
aF-5.053224086761475
aF-5.023799419403076
aF-5.013895034790039
aF-5.044173717498779
aF-5.063443660736084
aF-5.022815227508545
aF-5.054898738861084
aF-5.033285617828369
aF-5.062123775482178
aF-5.020592212677002
aF-5.042569637298584
aF-5.024866104125977
aF-5.050329685211182
aF-5.046663284301758
aF-5.06909704208374
aF-5.038599491119385
aF-5.048826217651367
aF-5.06440544128418
aF-5.0271382331848145
aF-5.050009250640869
aF-5.037813663482666
aF-5.0074944496154785
aF-4.999156475067139
aF-5.013660907745361
aF-5.055253028869629
aF-5.074927806854248
aF-5.012496471405029
aF-5.048794269561768
aF-5.0316481590271
aF-5.069255828857422
aF-5.04783296585083
aF-5.0099663734436035
aF-5.058530330657959
aF-5.053039073944092
aF-5.006015777587891
aF-5.031861782073975
aF-5.034262657165527
aF-5.0682244300842285
aF-5.072333812713623
aF-5.034578800201416
aF-5.055800914764404
aF-5.04863166809082
aF-5.032635688781738
aF-5.032771587371826
aF-5.059871673583984
aF-5.036098003387451
aF-5.038886547088623
aF-5.0077714920043945
aF-5.101612567901611
aF-4.994652271270752
aF-5.017493724822998
aF-5.045980453491211
aF-5.048901557922363
aF-5.020144939422607
aF-5.041073322296143
aF-5.01549768447876
aF-5.036253452301025
aF-5.025436878204346
aF-5.0365753173828125
aF-5.0274338722229
aF-5.058846950531006
aF-5.025973796844482
aF-5.015158176422119
aF-5.060563564300537
aF-5.055239677429199
aF-5.0489983558654785
aF-5.028883457183838
aF-5.0729660987854
aF-5.038589954376221
aF-5.048139572143555
aF-5.0450310707092285
aF-5.038756370544434
aF-5.062063694000244
aF-5.049145221710205
aF-5.014698028564453
aF-5.052778244018555
aF-5.074461936950684
aF-5.0374932289123535
aF-5.027907848358154
aF-5.028401851654053
aF-5.052060604095459
aF-5.050753116607666
aF-5.015487194061279
aF-5.0480170249938965
aF-5.049131870269775
aF-5.0554890632629395
aF-5.0469183921813965
aF-4.995573997497559
aF-5.029580593109131
aF-5.0088090896606445
aF-5.027954578399658
aF-5.0177998542785645
aF-5.024013519287109
aF-5.016357898712158
aF-5.070917129516602
aF-5.069982051849365
aF-5.028489589691162
aF-5.038626194000244
aF-5.047774314880371
aF-5.074244499206543
aF-5.074591636657715
aF-5.0145792961120605
aF-5.044854164123535
aF-5.093619346618652
aF-5.0432257652282715
aF-5.018248081207275
aF-5.059064865112305
aF-5.012581825256348
aF-5.063226222991943
aF-5.062494277954102
aF-5.027202129364014
aF-5.049816608428955
aF-5.006977081298828
aF-5.025822162628174
aF-5.034464359283447
aF-5.026333332061768
aF-5.041001319885254
aF-5.023426055908203
aF-5.0926737785339355
atp3
a((lp4
F0.0
aF3.0002840958331944e-06
aF6.000247140036663e-06
aF9.000475074572023e-06
aF1.2000223250652198e-05
aF1.5000595340097789e-05
aF1.8000528143602423e-05
aF2.100005076499656e-05
aF2.4000533812795766e-05
aF2.70005693892017e-05
aF3.0000106562511064e-05
aF3.3000611438183114e-05
aF3.600051422836259e-05
aF3.9000307879177853e-05
aF4.200022522127256e-05
aF4.500041177379899e-05
aF4.8000274546211585e-05
aF5.100046837469563e-05
aF5.400026202551089e-05
aF5.700026304111816e-05
aF6.000008943374269e-05
aF6.30003705737181e-05
aF6.60001314827241e-05
aF6.900051812408492e-05
aF7.200028630904853e-05
aF7.500005449401215e-05
aF7.800044113537297e-05
aF8.100020204437897e-05
aF8.399999933317304e-05
aF8.700058970134705e-05
aF9.000035061035305e-05
aF9.300035890191793e-05
aF9.600031626177952e-05
aF9.900020813802257e-05
aF0.00010200030374107882
aF0.00010500017378944904
aF0.00010800033487612382
aF0.00011100041592726484
aF0.00011400008952477947
aF0.00011700044706230983
aF0.00012000027345493436
aF0.00012300013622734696
aF0.00012600026093423367
aF0.00012900016736239195
aF0.00013200053945183754
aF0.00013500027125701308
aF0.00013800000306218863
aF0.00014100037515163422
aF0.00014400010695680976
aF0.00014700047904625535
aF0.00015000009443610907
aF0.00015300046652555466
aF0.0001560001983307302
aF0.0001590005704201758
aF0.00016200030222535133
aF0.00016500003403052688
aF0.00016800040611997247
aF0.000171000137925148
aF0.0001740005100145936
aF0.00017700024181976914
aF0.00018000061390921474
aF0.00018300034571439028
aF0.00018600007751956582
aF0.0001890004496090114
aF0.00019200018141418695
aF0.00019500055350363255
aF0.0001980002853088081
aF0.00020100001711398363
aF0.00020400038920342922
aF0.00020700012100860476
aF0.00021000049309805036
aF0.0002130002249032259
aF0.0002160005969926715
aF0.00021900032879784703
aF0.00022200006060302258
aF0.00022500043269246817
aF0.0002280001644976437
aF0.0002310005365870893
aF0.00023400026839226484
aF0.00023700064048171043
aF0.00024000037228688598
aF0.00024300010409206152
aF0.0002460004761815071
aF0.00024900020798668265
aF0.00025200058007612824
aF0.0002550003118813038
aF0.00025800004368647933
aF0.0002610004157759249
aF0.00026400014758110046
aF0.00026700051967054605
aF0.0002700002514757216
aF0.0002730006235651672
aF0.00027600035537034273
aF0.0002790000871755183
aF0.00028200045926496387
aF0.0002850001910701394
aF0.000288000563159585
aF0.00029100029496476054
aF0.0002940000267699361
aF0.0002970003988593817
aF0.0003000001306645572
aF0.0003030005027540028
aF0.00030600023455917835
aF0.00030900060664862394
aF0.0003120003384537995
aF0.00031500007025897503
aF0.0003180004423484206
aF0.00032100017415359616
aF0.00032400054624304175
aF0.0003270002780482173
aF0.00033000000985339284
aF0.00033300038194283843
aF0.000336000113748014
aF0.00033900048583745956
aF0.0003420002176426351
aF0.0003450005897320807
aF0.00034800032153725624
aF0.0003510000533424318
aF0.0003540004254318774
aF0.0003570001572370529
aF0.0003600005293264985
aF0.00036300026113167405
aF0.00036600063322111964
aF0.0003690003650262952
aF0.00037200009683147073
aF0.0003750004689209163
aF0.00037800020072609186
aF0.00038100057281553745
aF0.000384000304620713
aF0.00038700003642588854
aF0.00039000040851533413
aF0.00039300014032050967
aF0.00039600051240995526
aF0.0003990002442151308
aF0.0004020006163045764
aF0.00040500034810975194
aF0.0004080000799149275
aF0.0004110004520043731
aF0.0004140001838095486
aF0.0004170005558989942
aF0.00042000028770416975
aF0.0004230000195093453
aF0.0004260003915987909
aF0.0004290001234039664
aF0.000432000495493412
aF0.00043500022729858756
aF0.00043800059938803315
aF0.0004410003311932087
aF0.00044400006299838424
aF0.00044700043508782983
aF0.00045000016689300537
aF0.00045300053898245096
aF0.0004560002707876265
aF0.00045900000259280205
aF0.00046200037468224764
aF0.0004650001064874232
aF0.00046800047857686877
aF0.0004710002103820443
aF0.0004740005824714899
aF0.00047700031427666545
aF0.000480000046081841
aF0.0004830004181712866
aF0.0004860001499764621
aF0.0004890005220659077
aF0.0004920002538710833
aF0.0004950006259605289
aF0.0004980003577657044
aF0.0005010000895708799
aF0.0005040004616603255
aF0.0005070001934655011
aF0.0005100005655549467
aF0.0005130002973601222
aF0.0005160000291652977
aF0.0005190004012547433
aF0.0005220001330599189
aF0.0005250005051493645
aF0.00052800023695454
aF0.0005310006090439856
aF0.0005340003408491611
aF0.0005370000726543367
aF0.0005400004447437823
aF0.0005430001765489578
aF0.0005460005486384034
aF0.000549000280443579
aF0.0005520000122487545
aF0.0005550003843382001
aF0.0005580001161433756
aF0.0005610004882328212
aF0.0005640002200379968
aF0.0005670005921274424
aF0.0005700003239326179
aF0.0005730000557377934
aF0.000576000427827239
aF0.0005790001596324146
aF0.0005820005317218602
aF0.0005850002635270357
aF0.0005879999953322113
aF0.0005910003674216568
aF0.0005940000992268324
aF0.000597000471316278
aF0.0006000002031214535
aF0.0006030005752108991
aF0.0006060003070160747
aF0.0006090000388212502
aF0.0006120004109106958
aF0.0006150001427158713
aF0.0006180005148053169
aF0.0006210002466104925
aF0.0006240006186999381
aF0.0006270003505051136
aF0.0006300000823102891
aF0.0006330004543997347
aF0.0006360001862049103
aF0.0006390005582943559
aF0.0006420002900995314
aF0.000645000021904707
aF0.0006480003939941525
aF0.0006510001257993281
aF0.0006540004978887737
aF0.0006570002296939492
aF0.0006600006017833948
aF0.0006630003335885704
aF0.0006660000653937459
aF0.0006690004374831915
aF0.000672000169288367
aF0.0006750005413778126
aF0.0006780002731829882
aF0.0006810000049881637
aF0.0006840003770776093
aF0.0006870001088827848
aF0.0006900004809722304
aF0.000693000212777406
aF0.0006960005848668516
aF0.0006990003166720271
aF0.0007020000484772027
aF0.0007050004205666482
aF0.0007080001523718238
aF0.0007110005244612694
aF0.0007140002562664449
aF0.0007170006283558905
aF0.0007200003601610661
aF0.0007230000919662416
aF0.0007260004640556872
aF0.0007290001958608627
aF0.0007320005679503083
aF0.0007350002997554839
aF0.0007380000315606594
aF0.000741000403650105
aF0.0007440001354552805
aF0.0007470005075447261
aF0.0007500002393499017
aF0.0007530006114393473
aF0.0007560003432445228
aF0.0007590000750496984
aF0.0007620004471391439
aF0.0007650001789443195
aF0.0007680005510337651
aF0.0007710002828389406
aF0.0007740000146441162
aF0.0007770003867335618
aF0.0007800001185387373
aF0.0007830004906281829
aF0.0007860002224333584
aF0.000789000594522804
aF0.0007920003263279796
aF0.0007950000581331551
aF0.0007980004302226007
aF0.0008010001620277762
aF0.0008040005341172218
aF0.0008070002659223974
aF0.000810000638011843
aF0.0008130003698170185
aF0.000816000101622194
aF0.0008190004737116396
aF0.0008220002055168152
aF0.0008250005776062608
aF0.0008280003094114363
aF0.0008310000412166119
aF0.0008340004133060575
aF0.000837000145111233
aF0.0008400005172006786
aF0.0008430002490058541
aF0.0008460006210952997
aF0.0008490003529004753
aF0.0008520000847056508
aF0.0008550004567950964
aF0.0008580001886002719
aF0.0008610005606897175
aF0.0008640002924948931
aF0.0008670000243000686
aF0.0008700003963895142
aF0.0008730001281946898
aF0.0008760005002841353
aF0.0008790002320893109
aF0.0008820006041787565
aF0.000885000335983932
aF0.0008880000677891076
aF0.0008910004398785532
aF0.0008940001716837287
aF0.0008970005437731743
aF0.0009000002755783498
aF0.0009030000073835254
aF0.000906000379472971
aF0.0009090001112781465
aF0.0009120004833675921
aF0.0009150002151727676
aF0.0009180005872622132
aF0.0009210003190673888
aF0.0009240000508725643
aF0.0009270004229620099
aF0.0009300001547671854
aF0.000933000526856631
aF0.0009360002586618066
aF0.0009390006307512522
aF0.0009420003625564277
aF0.0009450000943616033
aF0.0009480004664510489
aF0.0009510001982562244
aF0.00095400057034567
aF0.0009570003021508455
aF0.0009600000339560211
aF0.0009630004060454667
aF0.0009660001378506422
aF0.0009690005099400878
aF0.0009720002417452633
aF0.0009750006138347089
aF0.0009780004620552063
aF0.0009810004848986864
aF0.0009840005077421665
aF0.0009870005305856466
aF0.0009900005534291267
aF0.0009930005762726068
aF0.000996000599116087
aF0.000999000621959567
aF0.0010020006448030472
aF0.0010050006676465273
aF0.0010079999919980764
aF0.0010110000148415565
aF0.0010140000376850367
aF0.0010170000605285168
aF0.0010200000833719969
aF0.001023000106215477
aF0.001026000129058957
aF0.0010290001519024372
aF0.0010320001747459173
aF0.0010350001975893974
aF0.0010380002204328775
aF0.0010410002432763577
aF0.0010440002661198378
aF0.0010470002889633179
aF0.001050000311806798
aF0.001053000334650278
aF0.0010560003574937582
aF0.0010590003803372383
aF0.0010620004031807184
aF0.0010650004260241985
aF0.0010680004488676786
aF0.0010710004717111588
aF0.0010740004945546389
aF0.001077000517398119
aF0.001080000540241599
aF0.0010830005630850792
aF0.0010860005859285593
aF0.0010890006087720394
aF0.0010920006316155195
aF0.0010950006544589996
aF0.0010980006773024797
aF0.001101000001654029
aF0.001104000024497509
aF0.0011070000473409891
aF0.0011100000701844692
aF0.0011130000930279493
aF0.0011160001158714294
aF0.0011190001387149096
aF0.0011220001615583897
aF0.0011250001844018698
aF0.0011280002072453499
aF0.00113100023008883
aF0.00113400025293231
aF0.0011370002757757902
aF0.0011400002986192703
aF0.0011430003214627504
aF0.0011460003443062305
aF0.0011490003671497107
aF0.0011520003899931908
aF0.0011550004128366709
aF0.001158000435680151
aF0.001161000458523631
aF0.0011640004813671112
aF0.0011670005042105913
aF0.0011700005270540714
aF0.0011730005498975515
aF0.0011760005727410316
aF0.0011790005955845118
aF0.0011820006184279919
aF0.001185000641271472
aF0.001188000664114952
aF0.0011909999884665012
aF0.0011940000113099813
aF0.0011970000341534615
aF0.0012000000569969416
aF0.0012030000798404217
aF0.0012060001026839018
aF0.001209000125527382
aF0.001212000148370862
aF0.0012150001712143421
aF0.0012180001940578222
aF0.0012210002169013023
aF0.0012240002397447824
aF0.0012270002625882626
aF0.0012300002854317427
aF0.0012330003082752228
aF0.0012360003311187029
aF0.001239000353962183
aF0.0012420003768056631
aF0.0012450003996491432
aF0.0012480004224926233
aF0.0012510004453361034
aF0.0012540004681795835
aF0.0012570004910230637
aF0.0012600005138665438
aF0.0012630005367100239
aF0.001266000559553504
aF0.001269000582396984
aF0.0012720006052404642
aF0.0012750006280839443
aF0.0012780006509274244
aF0.0012810006737709045
aF0.0012839999981224537
aF0.0012870000209659338
aF0.001290000043809414
aF0.001293000066652894
aF0.0012960000894963741
aF0.0012990001123398542
aF0.0013020001351833344
aF0.0013050001580268145
aF0.0013080001808702946
aF0.0013110002037137747
aF0.0013140002265572548
aF0.001317000249400735
aF0.001320000272244215
aF0.0013230002950876951
aF0.0013260003179311752
aF0.0013290003407746553
aF0.0013320003636181355
aF0.0013350003864616156
aF0.0013380004093050957
aF0.0013410004321485758
aF0.001344000454992056
aF0.001347000477835536
aF0.0013500005006790161
aF0.0013530005235224962
aF0.0013560005463659763
aF0.0013590005692094564
aF0.0013620005920529366
aF0.0013650006148964167
aF0.0013680006377398968
aF0.0013710006605833769
aF0.001374000683426857
aF0.0013770000077784061
aF0.0013800000306218863
aF0.0013830000534653664
aF0.0013860000763088465
aF0.0013890000991523266
aF0.0013920001219958067
aF0.0013950001448392868
aF0.001398000167682767
aF0.001401000190526247
aF0.0014040002133697271
aF0.0014070002362132072
aF0.0014100002590566874
aF0.0014130002819001675
aF0.0014160003047436476
aF0.0014190003275871277
aF0.0014220003504306078
aF0.001425000373274088
aF0.001428000396117568
aF0.0014310004189610481
aF0.0014340004418045282
aF0.0014370004646480083
aF0.0014400004874914885
aF0.0014430005103349686
aF0.0014460005331784487
aF0.0014490005560219288
aF0.001452000578865409
aF0.001455000601708889
aF0.0014580006245523691
aF0.0014610006473958492
aF0.0014640006702393293
aF0.0014669999945908785
aF0.0014700000174343586
aF0.0014730000402778387
aF0.0014760000631213188
aF0.001479000085964799
aF0.001482000108808279
aF0.0014850001316517591
aF0.0014880001544952393
aF0.0014910001773387194
aF0.0014940002001821995
aF0.0014970002230256796
aF0.0015000002458691597
aF0.0015030002687126398
aF0.00150600029155612
aF0.0015090003143996
aF0.0015120003372430801
aF0.0015150003600865602
aF0.0015180003829300404
aF0.0015210004057735205
aF0.0015240004286170006
aF0.0015270004514604807
aF0.0015300004743039608
aF0.001533000497147441
aF0.001536000519990921
aF0.0015390005428344011
aF0.0015420005656778812
aF0.0015450005885213614
aF0.0015480006113648415
aF0.0015510006342083216
aF0.0015540006570518017
aF0.0015570006798952818
aF0.001560000004246831
aF0.001563000027090311
aF0.0015660000499337912
aF0.0015690000727772713
aF0.0015720000956207514
aF0.0015750001184642315
aF0.0015780001413077116
aF0.0015810001641511917
aF0.0015840001869946718
aF0.001587000209838152
aF0.001590000232681632
aF0.0015930002555251122
aF0.0015960002783685923
aF0.0015990003012120724
aF0.0016020003240555525
aF0.0016050003468990326
aF0.0016080003697425127
aF0.0016110003925859928
aF0.001614000415429473
aF0.001617000438272953
aF0.0016200004611164331
aF0.0016230004839599133
aF0.0016260005068033934
aF0.0016290005296468735
aF0.0016320005524903536
aF0.0016350005753338337
aF0.0016380005981773138
aF0.001641000621020794
aF0.001644000643864274
aF0.0016470006667077541
aF0.0016500006895512342
aF0.0016530000139027834
aF0.0016560000367462635
aF0.0016590000595897436
aF0.0016620000824332237
aF0.0016650001052767038
aF0.001668000128120184
aF0.001671000150963664
aF0.0016740001738071442
aF0.0016770001966506243
aF0.0016800002194941044
aF0.0016830002423375845
aF0.0016860002651810646
aF0.0016890002880245447
aF0.0016920003108680248
aF0.001695000333711505
aF0.001698000356554985
aF0.0017010003793984652
aF0.0017040004022419453
aF0.0017070004250854254
aF0.0017100004479289055
aF0.0017130004707723856
aF0.0017160004936158657
aF0.0017190005164593458
aF0.001722000539302826
aF0.001725000562146306
aF0.0017280005849897861
aF0.0017310006078332663
aF0.0017340006306767464
aF0.0017370006535202265
aF0.0017400006763637066
aF0.0017430006992071867
aF0.0017460000235587358
aF0.001749000046402216
aF0.001752000069245696
aF0.0017550000920891762
aF0.0017580001149326563
aF0.0017610001377761364
aF0.0017640001606196165
aF0.0017670001834630966
aF0.0017700002063065767
aF0.0017730002291500568
aF0.001776000251993537
aF0.001779000274837017
aF0.0017820002976804972
aF0.0017850003205239773
aF0.0017880003433674574
aF0.0017910003662109375
aF0.0017940003890544176
aF0.0017970004118978977
aF0.0018000004347413778
aF0.001803000457584858
aF0.001806000480428338
aF0.0018090005032718182
aF0.0018120005261152983
aF0.0018150005489587784
aF0.0018180005718022585
aF0.0018210005946457386
aF0.0018240006174892187
aF0.0018270006403326988
aF0.001830000663176179
aF0.001833000686019659
aF0.0018360000103712082
aF0.0018390000332146883
aF0.0018420000560581684
aF0.0018450000789016485
aF0.0018480001017451286
aF0.0018510001245886087
aF0.0018540001474320889
aF0.001857000170275569
aF0.001860000193119049
aF0.0018630002159625292
aF0.0018660002388060093
aF0.0018690002616494894
aF0.0018720002844929695
aF0.0018750003073364496
aF0.0018780003301799297
aF0.0018810003530234098
aF0.00188400037586689
aF0.00188700039871037
aF0.0018900004215538502
aF0.0018930004443973303
aF0.0018960004672408104
aF0.0018990004900842905
aF0.0019020005129277706
aF0.0019050005357712507
aF0.0019080005586147308
aF0.001911000581458211
aF0.001914000604301691
aF0.0019170006271451712
aF0.0019200006499886513
aF0.0019230006728321314
aF0.0019260006956756115
aF0.0019290000200271606
aF0.0019320000428706408
aF0.0019350000657141209
aF0.001938000088557601
aF0.001941000111401081
aF0.0019440001342445612
aF0.0019470001570880413
aF0.0019500001799315214
aF0.0019530002027750015
aF0.0019560002256184816
aF0.0019590002484619617
aF0.001962000271305442
aF0.001965000294148922
aF0.001968000316992402
aF0.001971000339835882
aF0.0019740003626793623
aF0.0019770003855228424
aF0.0019800004083663225
aF0.0019830004312098026
aF0.0019860004540532827
aF0.001989000476896763
aF0.001992000499740243
aF0.001995000522583723
aF0.001998000545427203
aF0.0020010005682706833
aF0.0020040005911141634
aF0.0020070006139576435
aF0.0020100006368011236
aF0.0020129999611526728
aF0.002015999983996153
aF0.002019000006839633
aF0.002022000029683113
aF0.002025000052526593
aF0.0020280000753700733
aF0.0020310000982135534
aF0.0020340001210570335
aF0.0020370001439005136
aF0.0020400001667439938
aF0.002043000189587474
aF0.002046000212430954
aF0.002049000235274434
aF0.002052000258117914
aF0.0020550002809613943
aF0.0020580003038048744
aF0.0020610003266483545
aF0.0020640003494918346
aF0.0020670003723353148
aF0.002070000395178795
aF0.002073000418022275
aF0.002076000440865755
aF0.002079000463709235
aF0.0020820004865527153
aF0.0020850005093961954
aF0.0020880005322396755
aF0.0020910005550831556
aF0.0020940005779266357
aF0.002097000600770116
aF0.002100000623613596
aF0.002103000646457076
aF0.0021059999708086252
aF0.0021089999936521053
aF0.0021120000164955854
aF0.0021150000393390656
aF0.0021180000621825457
aF0.0021210000850260258
aF0.002124000107869506
aF0.002127000130712986
aF0.002130000153556466
aF0.002133000176399946
aF0.0021360001992434263
aF0.0021390002220869064
aF0.0021420002449303865
aF0.0021450002677738667
aF0.0021480002906173468
aF0.002151000313460827
aF0.002154000336304307
aF0.002157000359147787
aF0.002160000381991267
aF0.0021630004048347473
aF0.0021660004276782274
aF0.0021690004505217075
aF0.0021720004733651876
aF0.0021750004962086678
aF0.002178000519052148
aF0.002181000541895628
aF0.002184000564739108
aF0.002187000587582588
aF0.0021900006104260683
aF0.0021930006332695484
aF0.0021960006561130285
aF0.0021989999804645777
aF0.002202000003308058
aF0.002205000026151538
aF0.002208000048995018
aF0.002211000071838498
aF0.0022140000946819782
aF0.0022170001175254583
aF0.0022200001403689384
aF0.0022230001632124186
aF0.0022260001860558987
aF0.0022290002088993788
aF0.002232000231742859
aF0.002235000254586339
aF0.002238000277429819
aF0.0022410003002732992
aF0.0022440003231167793
aF0.0022470003459602594
aF0.0022500003688037395
aF0.0022530003916472197
aF0.0022560004144906998
aF0.00225900043733418
aF0.00226200046017766
aF0.00226500048302114
aF0.00226800050586462
aF0.0022710005287081003
aF0.0022740005515515804
aF0.0022770005743950605
aF0.0022800005972385406
aF0.0022830006200820208
aF0.002286000642925501
aF0.00228899996727705
aF0.00229199999012053
aF0.0022950000129640102
aF0.0022980000358074903
aF0.0023010000586509705
aF0.0023040000814944506
aF0.0023070001043379307
aF0.002310000127181411
aF0.002313000150024891
aF0.002316000172868371
aF0.002319000195711851
aF0.0023220002185553312
aF0.0023250002413988113
aF0.0023280002642422915
aF0.0023310002870857716
aF0.0023340003099292517
aF0.0023370003327727318
aF0.002340000355616212
aF0.002343000378459692
aF0.002346000401303172
aF0.0023490004241466522
aF0.0023520004469901323
aF0.0023550004698336124
aF0.0023580004926770926
aF0.0023610005155205727
aF0.0023640005383640528
aF0.002367000561207533
aF0.002370000584051013
aF0.002373000606894493
aF0.002376000629737973
aF0.0023790006525814533
aF0.0023819999769330025
aF0.0023849999997764826
aF0.0023880000226199627
aF0.002391000045463443
aF0.002394000068306923
aF0.002397000091150403
aF0.002400000113993883
aF0.0024030001368373632
aF0.0024060001596808434
aF0.0024090001825243235
aF0.0024120002053678036
aF0.0024150002282112837
aF0.002418000251054764
aF0.002421000273898244
aF0.002424000296741724
aF0.002427000319585204
aF0.0024300003424286842
aF0.0024330003652721643
aF0.0024360003881156445
aF0.0024390004109591246
aF0.0024420004338026047
aF0.002445000456646085
aF0.002448000479489565
aF0.002451000502333045
aF0.002454000525176525
aF0.0024570005480200052
aF0.0024600005708634853
aF0.0024630005937069654
aF0.0024660006165504456
aF0.0024690006393939257
aF0.0024720006622374058
aF0.002474999986588955
aF0.002478000009432435
aF0.002481000032275915
aF0.0024840000551193953
aF0.0024870000779628754
aF0.0024900001008063555
aF0.0024930001236498356
aF0.0024960001464933157
aF0.002499000169336796
aF0.002502000192180276
aF0.002505000215023756
aF0.002508000237867236
aF0.0025110002607107162
aF0.0025140002835541964
aF0.0025170003063976765
aF0.0025200003292411566
aF0.0025230003520846367
aF0.002526000374928117
aF0.002529000397771597
aF0.002532000420615077
aF0.002535000443458557
aF0.0025380004663020372
aF0.0025410004891455173
aF0.0025440005119889975
aF0.0025470005348324776
aF0.0025500005576759577
aF0.002553000580519438
aF0.002556000603362918
aF0.002559000626206398
aF0.002562000649049878
aF0.0025650006718933582
aF0.0025679999962449074
aF0.0025710000190883875
aF0.0025740000419318676
aF0.0025770000647753477
aF0.002580000087618828
aF0.002583000110462308
aF0.002586000133305788
aF0.002589000156149268
aF0.0025920001789927483
aF0.0025950002018362284
aF0.0025980002246797085
aF0.0026010002475231886
aF0.0026040002703666687
aF0.002607000293210149
aF0.002610000316053629
aF0.002613000338897109
aF0.002616000361740589
aF0.0026190003845840693
aF0.0026220004074275494
aF0.0026250004302710295
aF0.0026280004531145096
aF0.0026310004759579897
aF0.00263400049880147
aF0.00263700052164495
aF0.00264000054448843
aF0.00264300056733191
aF0.0026460005901753902
aF0.0026490006130188704
aF0.0026520006358623505
aF0.0026550006587058306
aF0.0026579999830573797
aF0.00266100000590086
aF0.00266400002874434
aF0.00266700005158782
aF0.0026700000744313
aF0.0026730000972747803
aF0.0026760001201182604
aF0.0026790001429617405
aF0.0026820001658052206
aF0.0026850001886487007
aF0.002688000211492181
aF0.002691000234335661
aF0.002694000257179141
aF0.002697000280022621
aF0.0027000003028661013
aF0.0027030003257095814
aF0.0027060003485530615
aF0.0027090003713965416
aF0.0027120003942400217
aF0.002715000417083502
aF0.002718000439926982
aF0.002721000462770462
aF0.002724000485613942
aF0.0027270005084574223
aF0.0027300005313009024
aF0.0027330005541443825
aF0.0027360005769878626
aF0.0027390005998313427
aF0.002742000622674823
aF0.002745000645518303
aF0.002748000668361783
aF0.002750999992713332
aF0.0027540000155568123
aF0.0027570000384002924
aF0.0027600000612437725
aF0.0027630000840872526
aF0.0027660001069307327
aF0.002769000129774213
aF0.002772000152617693
aF0.002775000175461173
aF0.002778000198304653
aF0.0027810002211481333
aF0.0027840002439916134
aF0.0027870002668350935
aF0.0027900002896785736
aF0.0027930003125220537
aF0.002796000335365534
aF0.002799000358209014
aF0.002802000381052494
aF0.002805000403895974
aF0.0028080004267394543
aF0.0028110004495829344
aF0.0028140004724264145
aF0.0028170004952698946
aF0.0028200005181133747
aF0.002823000540956855
aF0.002826000563800335
aF0.002829000586643815
aF0.002832000609487295
aF0.0028350006323307753
aF0.0028380006551742554
aF0.0028410006780177355
aF0.0028440000023692846
aF0.0028470000252127647
aF0.002850000048056245
aF0.002853000070899725
aF0.002856000093743205
aF0.002859000116586685
aF0.0028620001394301653
aF0.0028650001622736454
aF0.0028680001851171255
aF0.0028710002079606056
aF0.0028740002308040857
aF0.002877000253647566
aF0.002880000276491046
aF0.002883000299334526
aF0.002886000322178006
aF0.0028890003450214863
aF0.0028920003678649664
aF0.0028950003907084465
aF0.0028980004135519266
aF0.0029010004363954067
aF0.002904000459238887
aF0.002907000482082367
aF0.002910000504925847
aF0.002913000527769327
aF0.0029160005506128073
aF0.0029190005734562874
aF0.0029220005962997675
aF0.0029250006191432476
aF0.0029280006419867277
aF0.002931000664830208
aF0.002933999989181757
aF0.002937000012025237
aF0.002940000034868717
aF0.0029430000577121973
aF0.0029460000805556774
aF0.0029490001033991575
aF0.0029520001262426376
aF0.0029550001490861177
aF0.002958000171929598
aF0.002961000194773078
aF0.002964000217616558
aF0.002967000240460038
aF0.0029700002633035183
aF0.0029730002861469984
aF0.0029760003089904785
aF0.0029790003318339586
aF0.0029820003546774387
aF0.002985000377520919
aF0.002988000400364399
aF0.002991000423207879
aF0.002994000446051359
aF0.0029970004688948393
aF0.003000000026077032
a(lp5
F0.0
aF0.0
aF3.910884061042452e-08
aF-0.23955360054969788
aF-0.3318105638027191
aF-0.5388239026069641
aF-0.6868557929992676
aF-0.9009990096092224
aF-1.0532013177871704
aF-1.2030389308929443
aF-1.278349757194519
aF-1.4865825176239014
aF-1.6525027751922607
aF-1.7631627321243286
aF-1.9320436716079712
aF-2.0741848945617676
aF-2.2014920711517334
aF-2.3911054134368896
aF-2.56634259223938
aF-2.613081932067871
aF-2.7807986736297607
aF-2.8547708988189697
aF-3.043499708175659
aF-3.1641242504119873
aF-3.2445268630981445
aF-3.4449477195739746
aF-3.5749433040618896
aF-3.734434127807617
aF-4.0588884353637695
aF-4.103687286376953
aF-4.13912296295166
aF-4.459038257598877
aF-4.353653430938721
aF-4.499362468719482
aF-4.669254302978516
aF-4.795915603637695
aF-4.932239532470703
aF-5.032414436340332
aF-5.087060451507568
aF-5.1151204109191895
aF-5.222402095794678
aF-5.272599220275879
aF-5.320091247558594
aF-5.4584736824035645
aF-5.4225592613220215
aF-5.49502420425415
aF-5.534548759460449
aF-5.524875640869141
aF-5.546131134033203
aF-5.61968994140625
aF-5.595466613769531
aF-5.616196632385254
aF-5.648335933685303
aF-5.680181503295898
aF-5.670430660247803
aF-5.671825885772705
aF-5.7256269454956055
aF-5.664661884307861
aF-5.736029624938965
aF-5.732760906219482
aF-5.680985450744629
aF-5.6090874671936035
aF-5.595093727111816
aF-5.576570987701416
aF-5.581002712249756
aF-5.552968978881836
aF-5.479821681976318
aF-5.4354047775268555
aF-5.3595147132873535
aF-5.336517810821533
aF-5.283701419830322
aF-5.250380516052246
aF-5.118247985839844
aF-5.118666648864746
aF-5.036011219024658
aF-4.923189163208008
aF-4.95215368270874
aF-4.89195442199707
aF-4.8238205909729
aF-4.760227203369141
aF-4.783331871032715
aF-4.70586633682251
aF-4.584202289581299
aF-4.63970422744751
aF-4.60163688659668
aF-4.6430158615112305
aF-4.621304512023926
aF-4.604753494262695
aF-4.5691351890563965
aF-4.605411052703857
aF-4.57007360458374
aF-4.5655341148376465
aF-4.558035850524902
aF-4.535634517669678
aF-4.534972667694092
aF-4.5544939041137695
aF-4.491101264953613
aF-4.551670551300049
aF-4.5226287841796875
aF-4.236218452453613
aF-4.542579174041748
aF-4.5334672927856445
aF-4.649744033813477
aF-4.526329040527344
aF-4.522858142852783
aF-4.539369583129883
aF-4.5042619705200195
aF-4.485592365264893
aF-4.522899150848389
aF-4.527773857116699
aF-4.459495544433594
aF-4.439662933349609
aF-4.394720554351807
aF-4.375151634216309
aF-4.427560806274414
aF-4.330651760101318
aF-4.379783630371094
aF-4.387188911437988
aF-4.375564098358154
aF-4.2667717933654785
aF-4.3465118408203125
aF-4.274002552032471
aF-4.368988990783691
aF-4.545675277709961
aF-4.397608757019043
aF-4.507734298706055
aF-4.524191856384277
aF-4.5056867599487305
aF-4.53041934967041
aF-4.571591377258301
aF-4.416501998901367
aF-4.431852340698242
aF-4.447270393371582
aF-4.513574600219727
aF-4.5105814933776855
aF-4.516736030578613
aF-4.581435680389404
aF-4.504305839538574
aF-4.430385112762451
aF-4.457159996032715
aF-4.582702159881592
aF-4.476353645324707
aF-4.519374847412109
aF-4.619149208068848
aF-4.504406929016113
aF-4.531469345092773
aF-4.5540947914123535
aF-4.498475074768066
aF-4.53849458694458
aF-4.500059127807617
aF-4.489290714263916
aF-4.646327972412109
aF-4.465132236480713
aF-4.530578136444092
aF-4.545160293579102
aF-4.497925758361816
aF-4.484053611755371
aF-4.521503448486328
aF-4.5428643226623535
aF-4.541830062866211
aF-4.493371963500977
aF-4.496518135070801
aF-4.487296104431152
aF-4.4982757568359375
aF-4.467273712158203
aF-4.473711967468262
aF-4.450405120849609
aF-4.466480255126953
aF-4.433263778686523
aF-4.5046162605285645
aF-4.444526672363281
aF-4.451465606689453
aF-4.409079551696777
aF-4.374443531036377
aF-4.43213415145874
aF-4.506112575531006
aF-4.428276538848877
aF-4.396181106567383
aF-4.403875350952148
aF-4.503057479858398
aF-4.477392673492432
aF-4.43272590637207
aF-4.459343910217285
aF-4.4933180809021
aF-4.478982448577881
aF-4.437380790710449
aF-4.443282604217529
aF-4.436999320983887
aF-4.414664268493652
aF-4.363375663757324
aF-4.406769275665283
aF-4.44639253616333
aF-4.461287021636963
aF-4.443763256072998
aF-4.510097503662109
aF-4.413788318634033
aF-4.536217212677002
aF-4.477144718170166
aF-4.403754234313965
aF-4.46581506729126
aF-4.460615158081055
aF-4.480769157409668
aF-4.468234539031982
aF-4.409832000732422
aF-4.302288055419922
aF-4.411787509918213
aF-4.412441730499268
aF-4.354159355163574
aF-4.417048454284668
aF-4.397931098937988
aF-4.404001235961914
aF-4.37539529800415
aF-4.317530632019043
aF-4.383607387542725
aF-4.376955032348633
aF-4.4225544929504395
aF-4.416033744812012
aF-4.4661078453063965
aF-4.407793998718262
aF-4.337343692779541
aF-4.458580017089844
aF-4.432293891906738
aF-4.3793792724609375
aF-4.432761192321777
aF-4.390624523162842
aF-4.444037437438965
aF-4.478767395019531
aF-4.348943710327148
aF-4.388212203979492
aF-4.342901229858398
aF-4.3676252365112305
aF-4.430467128753662
aF-4.4875617027282715
aF-4.3929619789123535
aF-4.458861827850342
aF-4.368815898895264
aF-4.406757354736328
aF-4.384654998779297
aF-4.446138381958008
aF-4.505985736846924
aF-4.338618755340576
aF-4.394672393798828
aF-4.441880702972412
aF-4.4145283699035645
aF-4.40086555480957
aF-4.4109907150268555
aF-4.343674659729004
aF-4.461269855499268
aF-4.349895477294922
aF-4.410623550415039
aF-4.428675651550293
aF-4.412571907043457
aF-4.445277690887451
aF-4.359159469604492
aF-4.345530986785889
aF-4.37905216217041
aF-4.461678981781006
aF-4.478029727935791
aF-4.3670830726623535
aF-4.367220401763916
aF-4.407238960266113
aF-4.462209701538086
aF-4.446944713592529
aF-4.43636417388916
aF-4.425027370452881
aF-4.39130973815918
aF-4.459110260009766
aF-4.370119571685791
aF-4.469337463378906
aF-4.40316104888916
aF-4.421426296234131
aF-4.422389984130859
aF-4.4732842445373535
aF-4.413787841796875
aF-4.387063026428223
aF-4.4309611320495605
aF-4.392256736755371
aF-4.497351169586182
aF-4.445456504821777
aF-4.475588321685791
aF-4.458946704864502
aF-4.433197975158691
aF-4.448502540588379
aF-4.463067531585693
aF-4.430130958557129
aF-4.460342884063721
aF-4.4117302894592285
aF-4.527586936950684
aF-4.445662975311279
aF-4.544190406799316
aF-4.420246601104736
aF-4.596729755401611
aF-4.404945373535156
aF-4.4884114265441895
aF-4.43897008895874
aF-4.480291843414307
aF-4.456676006317139
aF-4.540170192718506
aF-4.477616310119629
aF-4.565011978149414
aF-4.437943458557129
aF-4.591587066650391
aF-4.462032318115234
aF-4.6026153564453125
aF-4.5227861404418945
aF-4.512087345123291
aF-4.512206077575684
aF-4.582287311553955
aF-4.491752624511719
aF-4.504463195800781
aF-4.530055999755859
aF-4.583511829376221
aF-4.534938812255859
aF-4.570947170257568
aF-4.554476261138916
aF-4.44325590133667
aF-4.549401760101318
aF-4.414031028747559
aF-4.54602575302124
aF-4.544480800628662
aF-4.527060508728027
aF-4.582791805267334
aF-4.543356895446777
aF-4.64518928527832
aF-4.538145542144775
aF-4.48246955871582
aF-4.565728187561035
aF-4.574760437011719
aF-4.545548439025879
aF-4.556699752807617
aF-4.536689758300781
aF-4.589956760406494
aF-4.478541851043701
aF-4.548369884490967
aF-4.52543830871582
aF-4.597710609436035
aF-4.552055835723877
aF-4.4980363845825195
aF-4.560489654541016
aF-4.581868648529053
aF-4.528811931610107
aF-4.490641117095947
aF-4.5918474197387695
aF-4.544673919677734
aF-4.581544876098633
aF-4.5356855392456055
aF-4.5706586837768555
aF-4.5610761642456055
aF-4.462513446807861
aF-4.610248565673828
aF-4.4813079833984375
aF-4.581602573394775
aF-4.588321208953857
aF-4.522497653961182
aF-4.597134113311768
aF-4.557931423187256
aF-4.534538269042969
aF-4.49452018737793
aF-4.61538553237915
aF-4.548195838928223
aF-4.562015056610107
aF-4.492978572845459
aF-4.461318492889404
aF-4.494590759277344
aF-4.549764633178711
aF-4.509696006774902
aF-4.564338207244873
aF-4.542490482330322
aF-4.5381879806518555
aF-4.52985143661499
aF-4.595326900482178
aF-4.530301570892334
aF-4.536798477172852
aF-4.540285587310791
aF-4.547952175140381
aF-4.560366630554199
aF-4.570616722106934
aF-4.556236267089844
aF-4.600086212158203
aF-4.617992877960205
aF-4.541304111480713
aF-4.522708892822266
aF-4.520191192626953
aF-4.5798163414001465
aF-4.571746826171875
aF-4.552289962768555
aF-4.553459167480469
aF-4.53585147857666
aF-4.562737941741943
aF-4.536436080932617
aF-4.585121154785156
aF-4.572935104370117
aF-4.508168697357178
aF-4.552341938018799
aF-4.574387550354004
aF-4.579483509063721
aF-4.565764904022217
aF-4.561654567718506
aF-4.5126495361328125
aF-4.681970119476318
aF-4.593330383300781
aF-4.511334419250488
aF-4.469783306121826
aF-4.5162434577941895
aF-4.538663864135742
aF-4.5810980796813965
aF-4.539453506469727
aF-4.560455799102783
aF-4.54531192779541
aF-4.547939300537109
aF-4.526893615722656
aF-4.491003036499023
aF-4.569244861602783
aF-4.5290374755859375
aF-4.597847938537598
aF-4.6293840408325195
aF-4.484766483306885
aF-4.571351528167725
aF-4.53204345703125
aF-4.557738304138184
aF-4.553981781005859
aF-4.5771660804748535
aF-4.560301780700684
aF-4.577014446258545
aF-4.546748161315918
aF-4.583522319793701
aF-4.549141883850098
aF-4.527558326721191
aF-4.552522659301758
aF-4.520590782165527
aF-4.628999710083008
aF-4.536062717437744
aF-4.5347137451171875
aF-4.519275665283203
aF-4.513454914093018
aF-4.535609722137451
aF-4.520536422729492
aF-4.5369791984558105
aF-4.570736885070801
aF-4.563616752624512
aF-4.608907699584961
aF-4.548860549926758
aF-4.571929931640625
aF-4.567208290100098
aF-4.50687837600708
aF-4.593689441680908
aF-4.553307056427002
aF-4.523565292358398
aF-4.528409004211426
aF-4.543363571166992
aF-4.556828022003174
aF-4.590607643127441
aF-4.539292335510254
aF-4.552096843719482
aF-4.5276312828063965
aF-4.577260494232178
aF-4.614121913909912
aF-4.589923858642578
aF-4.67697811126709
aF-4.5875444412231445
aF-4.548877239227295
aF-4.554392337799072
aF-4.555528163909912
aF-4.533236503601074
aF-4.559589385986328
aF-4.560705184936523
aF-4.526004791259766
aF-4.574533462524414
aF-4.545478820800781
aF-4.572009086608887
aF-4.5493245124816895
aF-4.5951337814331055
aF-4.595834255218506
aF-4.5655975341796875
aF-4.522871971130371
aF-4.586745262145996
aF-4.533384323120117
aF-4.595266342163086
aF-4.593446254730225
aF-4.597944259643555
aF-4.5576066970825195
aF-4.565703868865967
aF-4.629908561706543
aF-4.588559150695801
aF-4.5390849113464355
aF-4.562257289886475
aF-4.565505027770996
aF-4.615416526794434
aF-4.549515247344971
aF-4.482200622558594
aF-4.499574184417725
aF-4.569040298461914
aF-4.609930992126465
aF-4.5539655685424805
aF-4.544904708862305
aF-4.5696539878845215
aF-4.557986259460449
aF-4.55075216293335
aF-4.623094081878662
aF-4.548932075500488
aF-4.551795959472656
aF-4.570265769958496
aF-4.54628324508667
aF-4.565771102905273
aF-4.538957595825195
aF-4.560760498046875
aF-4.475785255432129
aF-4.524497985839844
aF-4.557353973388672
aF-4.539689064025879
aF-4.617099285125732
aF-4.518476486206055
aF-4.542811393737793
aF-4.5419206619262695
aF-4.531022548675537
aF-4.581794738769531
aF-4.539603233337402
aF-4.551661968231201
aF-4.541775226593018
aF-4.590559482574463
aF-4.498178958892822
aF-4.565512657165527
aF-4.530404090881348
aF-4.544063568115234
aF-4.526665210723877
aF-4.474478721618652
aF-4.532865524291992
aF-4.551919937133789
aF-4.51763391494751
aF-4.630722999572754
aF-4.553483009338379
aF-4.486673355102539
aF-4.5064616203308105
aF-4.448574542999268
aF-4.52156925201416
aF-4.491724014282227
aF-4.518435478210449
aF-4.5449910163879395
aF-4.546013355255127
aF-4.575423240661621
aF-4.608387470245361
aF-4.568539142608643
aF-4.527776718139648
aF-4.563048839569092
aF-4.546297550201416
aF-4.561100006103516
aF-4.543656349182129
aF-4.540160655975342
aF-4.545083045959473
aF-4.569103240966797
aF-4.543497562408447
aF-4.495469570159912
aF-4.508877754211426
aF-4.565661907196045
aF-4.539982318878174
aF-4.531880855560303
aF-4.546850204467773
aF-4.519937992095947
aF-4.517036437988281
aF-4.485945224761963
aF-4.527509689331055
aF-4.505650520324707
aF-4.54692268371582
aF-4.523157596588135
aF-4.567485809326172
aF-4.4485392570495605
aF-4.426478862762451
aF-4.4676079750061035
aF-4.501914024353027
aF-4.481459140777588
aF-4.450657844543457
aF-4.506533622741699
aF-4.4416913986206055
aF-4.417273998260498
aF-4.552666664123535
aF-4.4555792808532715
aF-4.418386459350586
aF-4.457956314086914
aF-4.426595211029053
aF-4.445980072021484
aF-4.452574729919434
aF-4.4296488761901855
aF-4.512448310852051
aF-4.491501331329346
aF-4.468938827514648
aF-4.450988292694092
aF-4.4851250648498535
aF-4.469991683959961
aF-4.409479141235352
aF-4.509824752807617
aF-4.540915012359619
aF-4.468303680419922
aF-4.538637161254883
aF-4.4148712158203125
aF-4.434983253479004
aF-4.437159538269043
aF-4.429800510406494
aF-4.436168670654297
aF-4.396659851074219
aF-4.413680076599121
aF-4.425670623779297
aF-4.522796630859375
aF-4.405551433563232
aF-4.398616790771484
aF-4.400123119354248
aF-4.389927864074707
aF-4.445401191711426
aF-4.4257402420043945
aF-4.411229610443115
aF-4.387326240539551
aF-4.430462837219238
aF-4.410730361938477
aF-4.4128031730651855
aF-4.477473735809326
aF-4.402681827545166
aF-4.434117317199707
aF-4.4652886390686035
aF-4.467358112335205
aF-4.334535598754883
aF-4.466141700744629
aF-4.476557731628418
aF-4.358787536621094
aF-4.352994918823242
aF-4.312994003295898
aF-4.412814617156982
aF-4.383604049682617
aF-4.4216156005859375
aF-4.477842330932617
aF-4.38222074508667
aF-4.411064147949219
aF-4.460390090942383
aF-4.345243453979492
aF-4.344281196594238
aF-4.464284896850586
aF-4.470519065856934
aF-4.344399452209473
aF-4.365877151489258
aF-4.422722816467285
aF-4.399501800537109
aF-4.368269920349121
aF-4.471141815185547
aF-4.383238792419434
aF-4.387574195861816
aF-4.385022163391113
aF-4.464942932128906
aF-4.368500232696533
aF-4.506095886230469
aF-4.455543041229248
aF-4.39772891998291
aF-4.454349517822266
aF-4.360739707946777
aF-4.454303741455078
aF-4.425728797912598
aF-4.469302177429199
aF-4.382640838623047
aF-4.479900360107422
aF-4.370457172393799
aF-4.357090473175049
aF-4.361819267272949
aF-4.477944850921631
aF-4.410003662109375
aF-4.425022602081299
aF-4.360450744628906
aF-4.406335353851318
aF-4.342898368835449
aF-4.386870384216309
aF-4.374200820922852
aF-4.431454658508301
aF-4.443941116333008
aF-4.393409729003906
aF-4.393158912658691
aF-4.384923934936523
aF-4.433706283569336
aF-4.4654436111450195
aF-4.382194519042969
aF-4.424113750457764
aF-4.399872779846191
aF-4.4165215492248535
aF-4.420649528503418
aF-4.4037981033325195
aF-4.481039524078369
aF-4.395729064941406
aF-4.426464080810547
aF-4.472530364990234
aF-4.416571140289307
aF-4.364487648010254
aF-4.44204568862915
aF-4.405308723449707
aF-4.4211578369140625
aF-4.4277119636535645
aF-4.352965354919434
aF-4.377788543701172
aF-4.382732391357422
aF-4.4232497215271
aF-4.377492904663086
aF-4.454073905944824
aF-4.456993103027344
aF-4.418703556060791
aF-4.352286338806152
aF-4.4298224449157715
aF-4.443722248077393
aF-4.409871578216553
aF-4.330683708190918
aF-4.402797698974609
aF-4.369802474975586
aF-4.3966827392578125
aF-4.393095016479492
aF-4.355536937713623
aF-4.49824857711792
aF-4.367627143859863
aF-4.407284736633301
aF-4.396255016326904
aF-4.459079742431641
aF-4.4279069900512695
aF-4.396894454956055
aF-4.416359901428223
aF-4.46439790725708
aF-4.377443313598633
aF-4.364048957824707
aF-4.441789627075195
aF-4.394207000732422
aF-4.375227451324463
aF-4.381038665771484
aF-4.404458999633789
aF-4.371810436248779
aF-4.422410488128662
aF-4.491820335388184
aF-4.419290542602539
aF-4.363460540771484
aF-4.451606273651123
aF-4.427502632141113
aF-4.362004280090332
aF-4.393000602722168
aF-4.446136474609375
aF-4.471346378326416
aF-4.366088390350342
aF-4.431549549102783
aF-4.403836727142334
aF-4.334103584289551
aF-4.361833572387695
aF-4.395057201385498
aF-4.504708766937256
aF-4.422666549682617
aF-4.343023300170898
aF-4.455747604370117
aF-4.437393665313721
aF-4.431164741516113
aF-4.445874214172363
aF-4.416394233703613
aF-4.51902961730957
aF-4.441534042358398
aF-4.3690032958984375
aF-4.428761005401611
aF-4.403432846069336
aF-4.380696773529053
aF-4.471531391143799
aF-4.403994083404541
aF-4.364583969116211
aF-4.4335408210754395
aF-4.403589725494385
aF-4.376044273376465
aF-4.473423957824707
aF-4.425339698791504
aF-4.362974166870117
aF-4.421510219573975
aF-4.365786552429199
aF-4.426899433135986
aF-4.4470977783203125
aF-4.373059272766113
aF-4.355371475219727
aF-4.420521259307861
aF-4.370697021484375
aF-4.4473066329956055
aF-4.371979236602783
aF-4.397191047668457
aF-4.358035087585449
aF-4.471410751342773
aF-4.455256462097168
aF-4.427675724029541
aF-4.335782051086426
aF-4.384850978851318
aF-4.406898498535156
aF-4.3798933029174805
aF-4.4591779708862305
aF-4.384066581726074
aF-4.461763858795166
aF-4.433274269104004
aF-4.401013374328613
aF-4.35593318939209
aF-4.387264728546143
aF-4.3531928062438965
aF-4.407305717468262
aF-4.37630558013916
aF-4.522180080413818
aF-4.395339488983154
aF-4.390054702758789
aF-4.458606719970703
aF-4.423009872436523
aF-4.366429805755615
aF-4.397968292236328
aF-4.400644302368164
aF-4.332344055175781
aF-4.397123336791992
aF-4.400320529937744
aF-4.466212272644043
aF-4.375068664550781
aF-4.4257001876831055
aF-4.386068820953369
aF-4.393795490264893
aF-4.392472267150879
aF-4.471546173095703
aF-4.467955112457275
aF-4.34599494934082
aF-4.392088890075684
aF-4.393138408660889
aF-4.479468822479248
aF-4.371711730957031
aF-4.397698402404785
aF-4.402471542358398
aF-4.419572353363037
aF-4.5191569328308105
aF-4.398818016052246
aF-4.392420768737793
aF-4.416521072387695
aF-4.391493797302246
aF-4.402085304260254
aF-4.400256633758545
aF-4.474980354309082
aF-4.397327899932861
aF-4.43327522277832
aF-4.455547332763672
aF-4.362079620361328
aF-4.411843776702881
aF-4.489442825317383
aF-4.441803455352783
aF-4.42589807510376
aF-4.393171787261963
aF-4.458694934844971
aF-4.457290172576904
aF-4.384045124053955
aF-4.35777473449707
aF-4.323191165924072
aF-4.397522926330566
aF-4.413581848144531
aF-4.4703803062438965
aF-4.457777976989746
aF-4.442516326904297
aF-4.390564918518066
aF-4.406881809234619
aF-4.443845272064209
aF-4.40617561340332
aF-4.401452541351318
aF-4.380511283874512
aF-4.336337566375732
aF-4.422929763793945
aF-4.354323863983154
aF-4.366657257080078
aF-4.391175270080566
aF-4.347407817840576
aF-4.3937153816223145
aF-4.345578670501709
aF-4.408921241760254
aF-4.387974262237549
aF-4.364902496337891
aF-4.428508758544922
aF-4.401059150695801
aF-4.383180141448975
aF-4.325805187225342
aF-4.48106575012207
aF-4.380129814147949
aF-4.394646167755127
aF-4.363638401031494
aF-4.421681880950928
aF-4.3651123046875
aF-4.348222732543945
aF-4.346315383911133
aF-4.438610076904297
aF-4.3549017906188965
aF-4.379229545593262
aF-4.400386810302734
aF-4.454348564147949
aF-4.3429951667785645
aF-4.480390548706055
aF-4.426510810852051
aF-4.3036651611328125
aF-4.3882670402526855
aF-4.427160263061523
aF-4.393738746643066
aF-4.358827114105225
aF-4.443515300750732
aF-4.44456672668457
aF-4.435657501220703
aF-4.370960712432861
aF-4.385337829589844
aF-4.463837623596191
aF-4.331009864807129
aF-4.3755950927734375
aF-4.350228786468506
aF-4.335476398468018
aF-4.390418529510498
aF-4.431461334228516
aF-4.446866035461426
aF-4.376270771026611
aF-4.398588180541992
aF-4.278159141540527
aF-4.329407691955566
aF-4.450980186462402
aF-4.383540153503418
aF-4.345204830169678
aF-4.419256210327148
aF-4.349615097045898
aF-4.380216121673584
aF-4.351140022277832
aF-4.399867057800293
aF-4.3909687995910645
aF-4.385158061981201
aF-4.309700012207031
aF-4.45115327835083
aF-4.393109321594238
aF-4.375616073608398
aF-4.391758441925049
aF-4.3507232666015625
aF-4.409036159515381
aF-4.3448710441589355
aF-4.351888656616211
aF-4.336453437805176
aF-4.394163608551025
aF-4.334505558013916
aF-4.304800033569336
aF-4.288534164428711
aF-4.430291652679443
aF-4.31919002532959
aF-4.365409851074219
aF-4.339157581329346
aF-4.4422502517700195
aF-4.452871799468994
aF-4.35042142868042
aF-4.3459248542785645
aF-4.404642105102539
aF-4.421741485595703
aF-4.370049476623535
aF-4.3091511726379395
aF-4.433950901031494
aF-4.402723789215088
aF-4.4475998878479
aF-4.409421920776367
aF-4.385472297668457
aF-4.39096736907959
aF-4.324063301086426
aF-4.398835182189941
aF-4.347460746765137
aF-4.369259834289551
aF-4.4188971519470215
aF-4.34476900100708
aF-4.441822052001953
aF-4.437105178833008
aF-4.3450117111206055
aF-4.364829063415527
aF-4.352782726287842
aF-4.36619758605957
aF-4.342985153198242
aF-4.373525142669678
aF-4.381433963775635
aF-4.37918758392334
aF-4.367096900939941
aF-4.344087600708008
aF-4.44594669342041
aF-4.393857002258301
aF-4.457869052886963
aF-4.2896318435668945
aF-4.355612754821777
aF-4.331996440887451
aF-4.427890300750732
aF-4.3215484619140625
aF-4.343522548675537
aF-4.32151985168457
aF-4.408321380615234
aF-4.367833614349365
aF-4.360757827758789
aF-4.31624174118042
aF-4.387747287750244
aF-4.384557723999023
aF-4.37889289855957
aF-4.328256607055664
aF-4.371543884277344
aF-4.404703617095947
aF-4.327606201171875
aF-4.311104774475098
aF-4.4159955978393555
aF-4.311140537261963
aF-4.423439025878906
aF-4.477517604827881
aF-4.352391719818115
aF-4.396236419677734
aF-4.347970485687256
aF-4.357367038726807
aF-4.421053886413574
aF-4.367487907409668
aF-4.349712371826172
aF-4.333852767944336
aF-4.374441623687744
atp6
a((lp7
F0.0
aF3.0002840958331944e-06
aF6.000247140036663e-06
aF9.000475074572023e-06
aF1.2000223250652198e-05
aF1.5000595340097789e-05
aF1.8000528143602423e-05
aF2.100005076499656e-05
aF2.4000533812795766e-05
aF2.70005693892017e-05
aF3.0000106562511064e-05
aF3.3000611438183114e-05
aF3.600051422836259e-05
aF3.9000307879177853e-05
aF4.200022522127256e-05
aF4.500041177379899e-05
aF4.8000274546211585e-05
aF5.100046837469563e-05
aF5.400026202551089e-05
aF5.700026304111816e-05
aF6.000008943374269e-05
aF6.30003705737181e-05
aF6.60001314827241e-05
aF6.900051812408492e-05
aF7.200028630904853e-05
aF7.500005449401215e-05
aF7.800044113537297e-05
aF8.100020204437897e-05
aF8.399999933317304e-05
aF8.700058970134705e-05
aF9.000035061035305e-05
aF9.300035890191793e-05
aF9.600031626177952e-05
aF9.900020813802257e-05
aF0.00010200030374107882
aF0.00010500017378944904
aF0.00010800033487612382
aF0.00011100041592726484
aF0.00011400008952477947
aF0.00011700044706230983
aF0.00012000027345493436
aF0.00012300013622734696
aF0.00012600026093423367
aF0.00012900016736239195
aF0.00013200053945183754
aF0.00013500027125701308
aF0.00013800000306218863
aF0.00014100037515163422
aF0.00014400010695680976
aF0.00014700047904625535
aF0.00015000009443610907
aF0.00015300046652555466
aF0.0001560001983307302
aF0.0001590005704201758
aF0.00016200030222535133
aF0.00016500003403052688
aF0.00016800040611997247
aF0.000171000137925148
aF0.0001740005100145936
aF0.00017700024181976914
aF0.00018000061390921474
aF0.00018300034571439028
aF0.00018600007751956582
aF0.0001890004496090114
aF0.00019200018141418695
aF0.00019500055350363255
aF0.0001980002853088081
aF0.00020100001711398363
aF0.00020400038920342922
aF0.00020700012100860476
aF0.00021000049309805036
aF0.0002130002249032259
aF0.0002160005969926715
aF0.00021900032879784703
aF0.00022200006060302258
aF0.00022500043269246817
aF0.0002280001644976437
aF0.0002310005365870893
aF0.00023400026839226484
aF0.00023700064048171043
aF0.00024000037228688598
aF0.00024300010409206152
aF0.0002460004761815071
aF0.00024900020798668265
aF0.00025200058007612824
aF0.0002550003118813038
aF0.00025800004368647933
aF0.0002610004157759249
aF0.00026400014758110046
aF0.00026700051967054605
aF0.0002700002514757216
aF0.0002730006235651672
aF0.00027600035537034273
aF0.0002790000871755183
aF0.00028200045926496387
aF0.0002850001910701394
aF0.000288000563159585
aF0.00029100029496476054
aF0.0002940000267699361
aF0.0002970003988593817
aF0.0003000001306645572
aF0.0003030005027540028
aF0.00030600023455917835
aF0.00030900060664862394
aF0.0003120003384537995
aF0.00031500007025897503
aF0.0003180004423484206
aF0.00032100017415359616
aF0.00032400054624304175
aF0.0003270002780482173
aF0.00033000000985339284
aF0.00033300038194283843
aF0.000336000113748014
aF0.00033900048583745956
aF0.0003420002176426351
aF0.0003450005897320807
aF0.00034800032153725624
aF0.0003510000533424318
aF0.0003540004254318774
aF0.0003570001572370529
aF0.0003600005293264985
aF0.00036300026113167405
aF0.00036600063322111964
aF0.0003690003650262952
aF0.00037200009683147073
aF0.0003750004689209163
aF0.00037800020072609186
aF0.00038100057281553745
aF0.000384000304620713
aF0.00038700003642588854
aF0.00039000040851533413
aF0.00039300014032050967
aF0.00039600051240995526
aF0.0003990002442151308
aF0.0004020006163045764
aF0.00040500034810975194
aF0.0004080000799149275
aF0.0004110004520043731
aF0.0004140001838095486
aF0.0004170005558989942
aF0.00042000028770416975
aF0.0004230000195093453
aF0.0004260003915987909
aF0.0004290001234039664
aF0.000432000495493412
aF0.00043500022729858756
aF0.00043800059938803315
aF0.0004410003311932087
aF0.00044400006299838424
aF0.00044700043508782983
aF0.00045000016689300537
aF0.00045300053898245096
aF0.0004560002707876265
aF0.00045900000259280205
aF0.00046200037468224764
aF0.0004650001064874232
aF0.00046800047857686877
aF0.0004710002103820443
aF0.0004740005824714899
aF0.00047700031427666545
aF0.000480000046081841
aF0.0004830004181712866
aF0.0004860001499764621
aF0.0004890005220659077
aF0.0004920002538710833
aF0.0004950006259605289
aF0.0004980003577657044
aF0.0005010000895708799
aF0.0005040004616603255
aF0.0005070001934655011
aF0.0005100005655549467
aF0.0005130002973601222
aF0.0005160000291652977
aF0.0005190004012547433
aF0.0005220001330599189
aF0.0005250005051493645
aF0.00052800023695454
aF0.0005310006090439856
aF0.0005340003408491611
aF0.0005370000726543367
aF0.0005400004447437823
aF0.0005430001765489578
aF0.0005460005486384034
aF0.000549000280443579
aF0.0005520000122487545
aF0.0005550003843382001
aF0.0005580001161433756
aF0.0005610004882328212
aF0.0005640002200379968
aF0.0005670005921274424
aF0.0005700003239326179
aF0.0005730000557377934
aF0.000576000427827239
aF0.0005790001596324146
aF0.0005820005317218602
aF0.0005850002635270357
aF0.0005879999953322113
aF0.0005910003674216568
aF0.0005940000992268324
aF0.000597000471316278
aF0.0006000002031214535
aF0.0006030005752108991
aF0.0006060003070160747
aF0.0006090000388212502
aF0.0006120004109106958
aF0.0006150001427158713
aF0.0006180005148053169
aF0.0006210002466104925
aF0.0006240006186999381
aF0.0006270003505051136
aF0.0006300000823102891
aF0.0006330004543997347
aF0.0006360001862049103
aF0.0006390005582943559
aF0.0006420002900995314
aF0.000645000021904707
aF0.0006480003939941525
aF0.0006510001257993281
aF0.0006540004978887737
aF0.0006570002296939492
aF0.0006600006017833948
aF0.0006630003335885704
aF0.0006660000653937459
aF0.0006690004374831915
aF0.000672000169288367
aF0.0006750005413778126
aF0.0006780002731829882
aF0.0006810000049881637
aF0.0006840003770776093
aF0.0006870001088827848
aF0.0006900004809722304
aF0.000693000212777406
aF0.0006960005848668516
aF0.0006990003166720271
aF0.0007020000484772027
aF0.0007050004205666482
aF0.0007080001523718238
aF0.0007110005244612694
aF0.0007140002562664449
aF0.0007170006283558905
aF0.0007200003601610661
aF0.0007230000919662416
aF0.0007260004640556872
aF0.0007290001958608627
aF0.0007320005679503083
aF0.0007350002997554839
aF0.0007380000315606594
aF0.000741000403650105
aF0.0007440001354552805
aF0.0007470005075447261
aF0.0007500002393499017
aF0.0007530006114393473
aF0.0007560003432445228
aF0.0007590000750496984
aF0.0007620004471391439
aF0.0007650001789443195
aF0.0007680005510337651
aF0.0007710002828389406
aF0.0007740000146441162
aF0.0007770003867335618
aF0.0007800001185387373
aF0.0007830004906281829
aF0.0007860002224333584
aF0.000789000594522804
aF0.0007920003263279796
aF0.0007950000581331551
aF0.0007980004302226007
aF0.0008010001620277762
aF0.0008040005341172218
aF0.0008070002659223974
aF0.000810000638011843
aF0.0008130003698170185
aF0.000816000101622194
aF0.0008190004737116396
aF0.0008220002055168152
aF0.0008250005776062608
aF0.0008280003094114363
aF0.0008310000412166119
aF0.0008340004133060575
aF0.000837000145111233
aF0.0008400005172006786
aF0.0008430002490058541
aF0.0008460006210952997
aF0.0008490003529004753
aF0.0008520000847056508
aF0.0008550004567950964
aF0.0008580001886002719
aF0.0008610005606897175
aF0.0008640002924948931
aF0.0008670000243000686
aF0.0008700003963895142
aF0.0008730001281946898
aF0.0008760005002841353
aF0.0008790002320893109
aF0.0008820006041787565
aF0.000885000335983932
aF0.0008880000677891076
aF0.0008910004398785532
aF0.0008940001716837287
aF0.0008970005437731743
aF0.0009000002755783498
aF0.0009030000073835254
aF0.000906000379472971
aF0.0009090001112781465
aF0.0009120004833675921
aF0.0009150002151727676
aF0.0009180005872622132
aF0.0009210003190673888
aF0.0009240000508725643
aF0.0009270004229620099
aF0.0009300001547671854
aF0.000933000526856631
aF0.0009360002586618066
aF0.0009390006307512522
aF0.0009420003625564277
aF0.0009450000943616033
aF0.0009480004664510489
aF0.0009510001982562244
aF0.00095400057034567
aF0.0009570003021508455
aF0.0009600000339560211
aF0.0009630004060454667
aF0.0009660001378506422
aF0.0009690005099400878
aF0.0009720002417452633
aF0.0009750006138347089
aF0.0009780004620552063
aF0.0009810004848986864
aF0.0009840005077421665
aF0.0009870005305856466
aF0.0009900005534291267
aF0.0009930005762726068
aF0.000996000599116087
aF0.000999000621959567
aF0.0010020006448030472
aF0.0010050006676465273
aF0.0010079999919980764
aF0.0010110000148415565
aF0.0010140000376850367
aF0.0010170000605285168
aF0.0010200000833719969
aF0.001023000106215477
aF0.001026000129058957
aF0.0010290001519024372
aF0.0010320001747459173
aF0.0010350001975893974
aF0.0010380002204328775
aF0.0010410002432763577
aF0.0010440002661198378
aF0.0010470002889633179
aF0.001050000311806798
aF0.001053000334650278
aF0.0010560003574937582
aF0.0010590003803372383
aF0.0010620004031807184
aF0.0010650004260241985
aF0.0010680004488676786
aF0.0010710004717111588
aF0.0010740004945546389
aF0.001077000517398119
aF0.001080000540241599
aF0.0010830005630850792
aF0.0010860005859285593
aF0.0010890006087720394
aF0.0010920006316155195
aF0.0010950006544589996
aF0.0010980006773024797
aF0.001101000001654029
aF0.001104000024497509
aF0.0011070000473409891
aF0.0011100000701844692
aF0.0011130000930279493
aF0.0011160001158714294
aF0.0011190001387149096
aF0.0011220001615583897
aF0.0011250001844018698
aF0.0011280002072453499
aF0.00113100023008883
aF0.00113400025293231
aF0.0011370002757757902
aF0.0011400002986192703
aF0.0011430003214627504
aF0.0011460003443062305
aF0.0011490003671497107
aF0.0011520003899931908
aF0.0011550004128366709
aF0.001158000435680151
aF0.001161000458523631
aF0.0011640004813671112
aF0.0011670005042105913
aF0.0011700005270540714
aF0.0011730005498975515
aF0.0011760005727410316
aF0.0011790005955845118
aF0.0011820006184279919
aF0.001185000641271472
aF0.001188000664114952
aF0.0011909999884665012
aF0.0011940000113099813
aF0.0011970000341534615
aF0.0012000000569969416
aF0.0012030000798404217
aF0.0012060001026839018
aF0.001209000125527382
aF0.001212000148370862
aF0.0012150001712143421
aF0.0012180001940578222
aF0.0012210002169013023
aF0.0012240002397447824
aF0.0012270002625882626
aF0.0012300002854317427
aF0.0012330003082752228
aF0.0012360003311187029
aF0.001239000353962183
aF0.0012420003768056631
aF0.0012450003996491432
aF0.0012480004224926233
aF0.0012510004453361034
aF0.0012540004681795835
aF0.0012570004910230637
aF0.0012600005138665438
aF0.0012630005367100239
aF0.001266000559553504
aF0.001269000582396984
aF0.0012720006052404642
aF0.0012750006280839443
aF0.0012780006509274244
aF0.0012810006737709045
aF0.0012839999981224537
aF0.0012870000209659338
aF0.001290000043809414
aF0.001293000066652894
aF0.0012960000894963741
aF0.0012990001123398542
aF0.0013020001351833344
aF0.0013050001580268145
aF0.0013080001808702946
aF0.0013110002037137747
aF0.0013140002265572548
aF0.001317000249400735
aF0.001320000272244215
aF0.0013230002950876951
aF0.0013260003179311752
aF0.0013290003407746553
aF0.0013320003636181355
aF0.0013350003864616156
aF0.0013380004093050957
aF0.0013410004321485758
aF0.001344000454992056
aF0.001347000477835536
aF0.0013500005006790161
aF0.0013530005235224962
aF0.0013560005463659763
aF0.0013590005692094564
aF0.0013620005920529366
aF0.0013650006148964167
aF0.0013680006377398968
aF0.0013710006605833769
aF0.001374000683426857
aF0.0013770000077784061
aF0.0013800000306218863
aF0.0013830000534653664
aF0.0013860000763088465
aF0.0013890000991523266
aF0.0013920001219958067
aF0.0013950001448392868
aF0.001398000167682767
aF0.001401000190526247
aF0.0014040002133697271
aF0.0014070002362132072
aF0.0014100002590566874
aF0.0014130002819001675
aF0.0014160003047436476
aF0.0014190003275871277
aF0.0014220003504306078
aF0.001425000373274088
aF0.001428000396117568
aF0.0014310004189610481
aF0.0014340004418045282
aF0.0014370004646480083
aF0.0014400004874914885
aF0.0014430005103349686
aF0.0014460005331784487
aF0.0014490005560219288
aF0.001452000578865409
aF0.001455000601708889
aF0.0014580006245523691
aF0.0014610006473958492
aF0.0014640006702393293
aF0.0014669999945908785
aF0.0014700000174343586
aF0.0014730000402778387
aF0.0014760000631213188
aF0.001479000085964799
aF0.001482000108808279
aF0.0014850001316517591
aF0.0014880001544952393
aF0.0014910001773387194
aF0.0014940002001821995
aF0.0014970002230256796
aF0.0015000002458691597
aF0.0015030002687126398
aF0.00150600029155612
aF0.0015090003143996
aF0.0015120003372430801
aF0.0015150003600865602
aF0.0015180003829300404
aF0.0015210004057735205
aF0.0015240004286170006
aF0.0015270004514604807
aF0.0015300004743039608
aF0.001533000497147441
aF0.001536000519990921
aF0.0015390005428344011
aF0.0015420005656778812
aF0.0015450005885213614
aF0.0015480006113648415
aF0.0015510006342083216
aF0.0015540006570518017
aF0.0015570006798952818
aF0.001560000004246831
aF0.001563000027090311
aF0.0015660000499337912
aF0.0015690000727772713
aF0.0015720000956207514
aF0.0015750001184642315
aF0.0015780001413077116
aF0.0015810001641511917
aF0.0015840001869946718
aF0.001587000209838152
aF0.001590000232681632
aF0.0015930002555251122
aF0.0015960002783685923
aF0.0015990003012120724
aF0.0016020003240555525
aF0.0016050003468990326
aF0.0016080003697425127
aF0.0016110003925859928
aF0.001614000415429473
aF0.001617000438272953
aF0.0016200004611164331
aF0.0016230004839599133
aF0.0016260005068033934
aF0.0016290005296468735
aF0.0016320005524903536
aF0.0016350005753338337
aF0.0016380005981773138
aF0.001641000621020794
aF0.001644000643864274
aF0.0016470006667077541
aF0.0016500006895512342
aF0.0016530000139027834
aF0.0016560000367462635
aF0.0016590000595897436
aF0.0016620000824332237
aF0.0016650001052767038
aF0.001668000128120184
aF0.001671000150963664
aF0.0016740001738071442
aF0.0016770001966506243
aF0.0016800002194941044
aF0.0016830002423375845
aF0.0016860002651810646
aF0.0016890002880245447
aF0.0016920003108680248
aF0.001695000333711505
aF0.001698000356554985
aF0.0017010003793984652
aF0.0017040004022419453
aF0.0017070004250854254
aF0.0017100004479289055
aF0.0017130004707723856
aF0.0017160004936158657
aF0.0017190005164593458
aF0.001722000539302826
aF0.001725000562146306
aF0.0017280005849897861
aF0.0017310006078332663
aF0.0017340006306767464
aF0.0017370006535202265
aF0.0017400006763637066
aF0.0017430006992071867
aF0.0017460000235587358
aF0.001749000046402216
aF0.001752000069245696
aF0.0017550000920891762
aF0.0017580001149326563
aF0.0017610001377761364
aF0.0017640001606196165
aF0.0017670001834630966
aF0.0017700002063065767
aF0.0017730002291500568
aF0.001776000251993537
aF0.001779000274837017
aF0.0017820002976804972
aF0.0017850003205239773
aF0.0017880003433674574
aF0.0017910003662109375
aF0.0017940003890544176
aF0.0017970004118978977
aF0.0018000004347413778
aF0.001803000457584858
aF0.001806000480428338
aF0.0018090005032718182
aF0.0018120005261152983
aF0.0018150005489587784
aF0.0018180005718022585
aF0.0018210005946457386
aF0.0018240006174892187
aF0.0018270006403326988
aF0.001830000663176179
aF0.001833000686019659
aF0.0018360000103712082
aF0.0018390000332146883
aF0.0018420000560581684
aF0.0018450000789016485
aF0.0018480001017451286
aF0.0018510001245886087
aF0.0018540001474320889
aF0.001857000170275569
aF0.001860000193119049
aF0.0018630002159625292
aF0.0018660002388060093
aF0.0018690002616494894
aF0.0018720002844929695
aF0.0018750003073364496
aF0.0018780003301799297
aF0.0018810003530234098
aF0.00188400037586689
aF0.00188700039871037
aF0.0018900004215538502
aF0.0018930004443973303
aF0.0018960004672408104
aF0.0018990004900842905
aF0.0019020005129277706
aF0.0019050005357712507
aF0.0019080005586147308
aF0.001911000581458211
aF0.001914000604301691
aF0.0019170006271451712
aF0.0019200006499886513
aF0.0019230006728321314
aF0.0019260006956756115
aF0.0019290000200271606
aF0.0019320000428706408
aF0.0019350000657141209
aF0.001938000088557601
aF0.001941000111401081
aF0.0019440001342445612
aF0.0019470001570880413
aF0.0019500001799315214
aF0.0019530002027750015
aF0.0019560002256184816
aF0.0019590002484619617
aF0.001962000271305442
aF0.001965000294148922
aF0.001968000316992402
aF0.001971000339835882
aF0.0019740003626793623
aF0.0019770003855228424
aF0.0019800004083663225
aF0.0019830004312098026
aF0.0019860004540532827
aF0.001989000476896763
aF0.001992000499740243
aF0.001995000522583723
aF0.001998000545427203
aF0.0020010005682706833
aF0.0020040005911141634
aF0.0020070006139576435
aF0.0020100006368011236
aF0.0020129999611526728
aF0.002015999983996153
aF0.002019000006839633
aF0.002022000029683113
aF0.002025000052526593
aF0.0020280000753700733
aF0.0020310000982135534
aF0.0020340001210570335
aF0.0020370001439005136
aF0.0020400001667439938
aF0.002043000189587474
aF0.002046000212430954
aF0.002049000235274434
aF0.002052000258117914
aF0.0020550002809613943
aF0.0020580003038048744
aF0.0020610003266483545
aF0.0020640003494918346
aF0.0020670003723353148
aF0.002070000395178795
aF0.002073000418022275
aF0.002076000440865755
aF0.002079000463709235
aF0.0020820004865527153
aF0.0020850005093961954
aF0.0020880005322396755
aF0.0020910005550831556
aF0.0020940005779266357
aF0.002097000600770116
aF0.002100000623613596
aF0.002103000646457076
aF0.0021059999708086252
aF0.0021089999936521053
aF0.0021120000164955854
aF0.0021150000393390656
aF0.0021180000621825457
aF0.0021210000850260258
aF0.002124000107869506
aF0.002127000130712986
aF0.002130000153556466
aF0.002133000176399946
aF0.0021360001992434263
aF0.0021390002220869064
aF0.0021420002449303865
aF0.0021450002677738667
aF0.0021480002906173468
aF0.002151000313460827
aF0.002154000336304307
aF0.002157000359147787
aF0.002160000381991267
aF0.0021630004048347473
aF0.0021660004276782274
aF0.0021690004505217075
aF0.0021720004733651876
aF0.0021750004962086678
aF0.002178000519052148
aF0.002181000541895628
aF0.002184000564739108
aF0.002187000587582588
aF0.0021900006104260683
aF0.0021930006332695484
aF0.0021960006561130285
aF0.0021989999804645777
aF0.002202000003308058
aF0.002205000026151538
aF0.002208000048995018
aF0.002211000071838498
aF0.0022140000946819782
aF0.0022170001175254583
aF0.0022200001403689384
aF0.0022230001632124186
aF0.0022260001860558987
aF0.0022290002088993788
aF0.002232000231742859
aF0.002235000254586339
aF0.002238000277429819
aF0.0022410003002732992
aF0.0022440003231167793
aF0.0022470003459602594
aF0.0022500003688037395
aF0.0022530003916472197
aF0.0022560004144906998
aF0.00225900043733418
aF0.00226200046017766
aF0.00226500048302114
aF0.00226800050586462
aF0.0022710005287081003
aF0.0022740005515515804
aF0.0022770005743950605
aF0.0022800005972385406
aF0.0022830006200820208
aF0.002286000642925501
aF0.00228899996727705
aF0.00229199999012053
aF0.0022950000129640102
aF0.0022980000358074903
aF0.0023010000586509705
aF0.0023040000814944506
aF0.0023070001043379307
aF0.002310000127181411
aF0.002313000150024891
aF0.002316000172868371
aF0.002319000195711851
aF0.0023220002185553312
aF0.0023250002413988113
aF0.0023280002642422915
aF0.0023310002870857716
aF0.0023340003099292517
aF0.0023370003327727318
aF0.002340000355616212
aF0.002343000378459692
aF0.002346000401303172
aF0.0023490004241466522
aF0.0023520004469901323
aF0.0023550004698336124
aF0.0023580004926770926
aF0.0023610005155205727
aF0.0023640005383640528
aF0.002367000561207533
aF0.002370000584051013
aF0.002373000606894493
aF0.002376000629737973
aF0.0023790006525814533
aF0.0023819999769330025
aF0.0023849999997764826
aF0.0023880000226199627
aF0.002391000045463443
aF0.002394000068306923
aF0.002397000091150403
aF0.002400000113993883
aF0.0024030001368373632
aF0.0024060001596808434
aF0.0024090001825243235
aF0.0024120002053678036
aF0.0024150002282112837
aF0.002418000251054764
aF0.002421000273898244
aF0.002424000296741724
aF0.002427000319585204
aF0.0024300003424286842
aF0.0024330003652721643
aF0.0024360003881156445
aF0.0024390004109591246
aF0.0024420004338026047
aF0.002445000456646085
aF0.002448000479489565
aF0.002451000502333045
aF0.002454000525176525
aF0.0024570005480200052
aF0.0024600005708634853
aF0.0024630005937069654
aF0.0024660006165504456
aF0.0024690006393939257
aF0.0024720006622374058
aF0.002474999986588955
aF0.002478000009432435
aF0.002481000032275915
aF0.0024840000551193953
aF0.0024870000779628754
aF0.0024900001008063555
aF0.0024930001236498356
aF0.0024960001464933157
aF0.002499000169336796
aF0.002502000192180276
aF0.002505000215023756
aF0.002508000237867236
aF0.0025110002607107162
aF0.0025140002835541964
aF0.0025170003063976765
aF0.0025200003292411566
aF0.0025230003520846367
aF0.002526000374928117
aF0.002529000397771597
aF0.002532000420615077
aF0.002535000443458557
aF0.0025380004663020372
aF0.0025410004891455173
aF0.0025440005119889975
aF0.0025470005348324776
aF0.0025500005576759577
aF0.002553000580519438
aF0.002556000603362918
aF0.002559000626206398
aF0.002562000649049878
aF0.0025650006718933582
aF0.0025679999962449074
aF0.0025710000190883875
aF0.0025740000419318676
aF0.0025770000647753477
aF0.002580000087618828
aF0.002583000110462308
aF0.002586000133305788
aF0.002589000156149268
aF0.0025920001789927483
aF0.0025950002018362284
aF0.0025980002246797085
aF0.0026010002475231886
aF0.0026040002703666687
aF0.002607000293210149
aF0.002610000316053629
aF0.002613000338897109
aF0.002616000361740589
aF0.0026190003845840693
aF0.0026220004074275494
aF0.0026250004302710295
aF0.0026280004531145096
aF0.0026310004759579897
aF0.00263400049880147
aF0.00263700052164495
aF0.00264000054448843
aF0.00264300056733191
aF0.0026460005901753902
aF0.0026490006130188704
aF0.0026520006358623505
aF0.0026550006587058306
aF0.0026579999830573797
aF0.00266100000590086
aF0.00266400002874434
aF0.00266700005158782
aF0.0026700000744313
aF0.0026730000972747803
aF0.0026760001201182604
aF0.0026790001429617405
aF0.0026820001658052206
aF0.0026850001886487007
aF0.002688000211492181
aF0.002691000234335661
aF0.002694000257179141
aF0.002697000280022621
aF0.0027000003028661013
aF0.0027030003257095814
aF0.0027060003485530615
aF0.0027090003713965416
aF0.0027120003942400217
aF0.002715000417083502
aF0.002718000439926982
aF0.002721000462770462
aF0.002724000485613942
aF0.0027270005084574223
aF0.0027300005313009024
aF0.0027330005541443825
aF0.0027360005769878626
aF0.0027390005998313427
aF0.002742000622674823
aF0.002745000645518303
aF0.002748000668361783
aF0.002750999992713332
aF0.0027540000155568123
aF0.0027570000384002924
aF0.0027600000612437725
aF0.0027630000840872526
aF0.0027660001069307327
aF0.002769000129774213
aF0.002772000152617693
aF0.002775000175461173
aF0.002778000198304653
aF0.0027810002211481333
aF0.0027840002439916134
aF0.0027870002668350935
aF0.0027900002896785736
aF0.0027930003125220537
aF0.002796000335365534
aF0.002799000358209014
aF0.002802000381052494
aF0.002805000403895974
aF0.0028080004267394543
aF0.0028110004495829344
aF0.0028140004724264145
aF0.0028170004952698946
aF0.0028200005181133747
aF0.002823000540956855
aF0.002826000563800335
aF0.002829000586643815
aF0.002832000609487295
aF0.0028350006323307753
aF0.0028380006551742554
aF0.0028410006780177355
aF0.0028440000023692846
aF0.0028470000252127647
aF0.002850000048056245
aF0.002853000070899725
aF0.002856000093743205
aF0.002859000116586685
aF0.0028620001394301653
aF0.0028650001622736454
aF0.0028680001851171255
aF0.0028710002079606056
aF0.0028740002308040857
aF0.002877000253647566
aF0.002880000276491046
aF0.002883000299334526
aF0.002886000322178006
aF0.0028890003450214863
aF0.0028920003678649664
aF0.0028950003907084465
aF0.0028980004135519266
aF0.0029010004363954067
aF0.002904000459238887
aF0.002907000482082367
aF0.002910000504925847
aF0.002913000527769327
aF0.0029160005506128073
aF0.0029190005734562874
aF0.0029220005962997675
aF0.0029250006191432476
aF0.0029280006419867277
aF0.002931000664830208
aF0.002933999989181757
aF0.002937000012025237
aF0.002940000034868717
aF0.0029430000577121973
aF0.0029460000805556774
aF0.0029490001033991575
aF0.0029520001262426376
aF0.0029550001490861177
aF0.002958000171929598
aF0.002961000194773078
aF0.002964000217616558
aF0.002967000240460038
aF0.0029700002633035183
aF0.0029730002861469984
aF0.0029760003089904785
aF0.0029790003318339586
aF0.0029820003546774387
aF0.002985000377520919
aF0.002988000400364399
aF0.002991000423207879
aF0.002994000446051359
aF0.0029970004688948393
aF0.003000000026077032
a(lp8
F0.0
aF0.0
aF-5.164666845303145e-07
aF-0.004285271745175123
aF-0.0033172841649502516
aF-0.0034974494483321905
aF-0.014091657474637032
aF-0.011723142117261887
aF-0.010293827392160892
aF-0.011551075614988804
aF-0.01288155373185873
aF-0.008751893416047096
aF0.0029825870878994465
aF-0.011674812994897366
aF-0.01118477899581194
aF-0.013363237492740154
aF-0.022522712126374245
aF-0.018225131556391716
aF-0.02375420555472374
aF-0.03662748634815216
aF-0.058342572301626205
aF-0.04643766209483147
aF-0.04596858099102974
aF-0.04866594821214676
aF-0.03274206072092056
aF-0.03763105720281601
aF-0.038287870585918427
aF-0.030640944838523865
aF-0.04138396680355072
aF-0.036774199455976486
aF-0.029562346637248993
aF-0.03742900490760803
aF-0.01990761235356331
aF-0.027427002787590027
aF-0.03318966180086136
aF-0.030646424740552902
aF-0.02667027711868286
aF-0.033946745097637177
aF-0.04226772487163544
aF-0.03365689516067505
aF-0.04562947154045105
aF-0.04396533593535423
aF-0.047485217452049255
aF-0.03284250944852829
aF-0.023779476061463356
aF-0.012999012134969234
aF0.0033779540099203587
aF0.0024334120098501444
aF0.003276215633377433
aF-0.006825075950473547
aF-0.0028523437213152647
aF0.0038416991010308266
aF-0.0016584887634962797
aF0.0013686082093045115
aF0.0014469585148617625
aF-0.0055424789898097515
aF-0.007860507816076279
aF-0.009933666326105595
aF-0.008102614432573318
aF-0.004481333773583174
aF-0.015231180004775524
aF-0.011141750030219555
aF-0.015085190534591675
aF-0.018237611278891563
aF-0.021918244659900665
aF-0.018500657752156258
aF-0.019502390176057816
aF-0.018660908564925194
aF-0.019465729594230652
aF-0.022849539294838905
aF-0.016966769471764565
aF-0.014660858549177647
aF-0.014378897845745087
aF-0.007464895024895668
aF-0.01078124064952135
aF-0.01105685718357563
aF-0.003105362644419074
aF-0.004708047956228256
aF-0.008571852929890156
aF-0.011684575118124485
aF-0.012223606929183006
aF-0.009020812809467316
aF-0.00849432684481144
aF-0.008446620777249336
aF-0.013506397604942322
aF-0.014566784724593163
aF-0.009242044761776924
aF-0.0143671166151762
aF-0.010799831710755825
aF-0.015617749653756618
aF-0.00923877116292715
aF-0.003048134269192815
aF-0.0015539000742137432
aF-0.0056335642002522945
aF-0.01027198787778616
aF-0.0037471267860382795
aF-0.012426375411450863
aF0.0011885580606758595
aF-0.004128867760300636
aF-0.013911508023738861
aF-0.016360260546207428
aF-0.013512251898646355
aF-0.015614250674843788
aF-0.017896467819809914
aF-0.010091823525726795
aF-0.00842323899269104
aF-0.0077123804949223995
aF-0.01457239966839552
aF-0.018415989354252815
aF-0.00921741221100092
aF-0.00900658592581749
aF-0.015367221087217331
aF-0.01810624450445175
aF-0.029954999685287476
aF-0.031507473438978195
aF-0.030141714960336685
aF-0.027932286262512207
aF-0.023021386936306953
aF-0.02017887867987156
aF-0.025884153321385384
aF-0.02553815394639969
aF-0.022119691595435143
aF-0.028071744367480278
aF-0.017732961103320122
aF-0.01994253881275654
aF-0.03321344405412674
aF-0.016438018530607224
aF-0.01652790978550911
aF-0.014656578190624714
aF-0.014237119816243649
aF-0.016958659514784813
aF-0.011244687251746655
aF-0.021942272782325745
aF-0.026052182540297508
aF-0.027031322941184044
aF-0.023230694234371185
aF-0.015387086197733879
aF-0.024033229798078537
aF-0.02559756301343441
aF-0.033181849867105484
aF-0.015012320131063461
aF-0.02263866737484932
aF-0.02604645863175392
aF-0.008893012069165707
aF-0.016844667494297028
aF-0.011250097304582596
aF-0.01079767569899559
aF-0.01596316695213318
aF-0.010754432529211044
aF-0.016380522400140762
aF-0.01573314517736435
aF-0.014843977056443691
aF-0.025935444980859756
aF-0.012730634771287441
aF-0.008999397978186607
aF-0.01592063717544079
aF-0.023920338600873947
aF-0.027717363089323044
aF-0.005852682050317526
aF-0.005743301473557949
aF-0.03064202517271042
aF-0.02577042393386364
aF-0.019406720995903015
aF-0.02822151780128479
aF-0.01765649951994419
aF-0.01776765286922455
aF-0.021599048748612404
aF-0.019648540765047073
aF-0.019842607900500298
aF-0.02554965764284134
aF-0.017109911888837814
aF-0.028501924127340317
aF-0.028762336820364
aF-0.01807323284447193
aF-0.02032475732266903
aF-0.023522786796092987
aF-0.02400907874107361
aF-0.026081455871462822
aF-0.029642166569828987
aF-0.032139651477336884
aF-0.02317998558282852
aF-0.022858446463942528
aF-0.021518558263778687
aF-0.016509290784597397
aF-0.027611132711172104
aF-0.03229280561208725
aF-0.03285539895296097
aF-0.02533179335296154
aF-0.03106057457625866
aF-0.027670828625559807
aF-0.02807917632162571
aF-0.0295125562697649
aF-0.023655446246266365
aF-0.03251012787222862
aF-0.03282957896590233
aF-0.030277783051133156
aF-0.03767642006278038
aF-0.03209228813648224
aF-0.025355221703648567
aF-0.03250560164451599
aF-0.030282774940133095
aF-0.030134592205286026
aF-0.02965858019888401
aF-0.019961189478635788
aF-0.026836924254894257
aF-0.02248954214155674
aF-0.019629785791039467
aF-0.025524992495775223
aF-0.023980025202035904
aF-0.028591804206371307
aF-0.021537236869335175
aF-0.020235413685441017
aF-0.025163352489471436
aF-0.02917983941733837
aF-0.02366439811885357
aF-0.03529386222362518
aF-0.031517986208200455
aF-0.032259486615657806
aF-0.025491878390312195
aF-0.018493255600333214
aF-0.025216085836291313
aF-0.03482215106487274
aF-0.03278442099690437
aF-0.027713268995285034
aF-0.02917727641761303
aF-0.030191391706466675
aF-0.030274193733930588
aF-0.02654292620718479
aF-0.03435054421424866
aF-0.035083603113889694
aF-0.03838198632001877
aF-0.04034018516540527
aF-0.0380103774368763
aF-0.03513152897357941
aF-0.038565993309020996
aF-0.041009824723005295
aF-0.04066016525030136
aF-0.03833918273448944
aF-0.04322829097509384
aF-0.04360169172286987
aF-0.048914555460214615
aF-0.04816252738237381
aF-0.04786074534058571
aF-0.047397859394550323
aF-0.04502590745687485
aF-0.045986004173755646
aF-0.04608149826526642
aF-0.04412493854761124
aF-0.0501803383231163
aF-0.04678940773010254
aF-0.048111844807863235
aF-0.04898601025342941
aF-0.052370816469192505
aF-0.04911809414625168
aF-0.04589097201824188
aF-0.05454164370894432
aF-0.05340598151087761
aF-0.051800455898046494
aF-0.041206881403923035
aF-0.04824944958090782
aF-0.043287571519613266
aF-0.05791435018181801
aF-0.046728093177080154
aF-0.0441301055252552
aF-0.05138725787401199
aF-0.04360564053058624
aF-0.04187597706913948
aF-0.052601926028728485
aF-0.05090237781405449
aF-0.05628614127635956
aF-0.053108055144548416
aF-0.05130276083946228
aF-0.05573810264468193
aF-0.050324779003858566
aF-0.05701141804456711
aF-0.05829502269625664
aF-0.05194592848420143
aF-0.050521060824394226
aF-0.05215521901845932
aF-0.05162710323929787
aF-0.05263727903366089
aF-0.056718774139881134
aF-0.044917359948158264
aF-0.061553146690130234
aF-0.0550520084798336
aF-0.05393822491168976
aF-0.0553312674164772
aF-0.05257062241435051
aF-0.05623611807823181
aF-0.04706635698676109
aF-0.04962918907403946
aF-0.050596874207258224
aF-0.0469951368868351
aF-0.04876779019832611
aF-0.0504116527736187
aF-0.05231758952140808
aF-0.04670238122344017
aF-0.04729549214243889
aF-0.047732021659612656
aF-0.04483252018690109
aF-0.052188124507665634
aF-0.05264667049050331
aF-0.04446861892938614
aF-0.049706265330314636
aF-0.05768612399697304
aF-0.05297046899795532
aF-0.05230990797281265
aF-0.052063070237636566
aF-0.047770943492650986
aF-0.05216965079307556
aF-0.05657357722520828
aF-0.0605156235396862
aF-0.05693400278687477
aF-0.06814676523208618
aF-0.05178332328796387
aF-0.05424675717949867
aF-0.047873564064502716
aF-0.05400821194052696
aF-0.058378513902425766
aF-0.046806689351797104
aF-0.05020564794540405
aF-0.048679180443286896
aF-0.04460548236966133
aF-0.050678759813308716
aF-0.04435667023062706
aF-0.046939197927713394
aF-0.04808855429291725
aF-0.044873494654893875
aF-0.04399934038519859
aF-0.04573141410946846
aF-0.04455392435193062
aF-0.0504809208214283
aF-0.052570048719644547
aF-0.04608063027262688
aF-0.04267451539635658
aF-0.04409157857298851
aF-0.044062454253435135
aF-0.050341859459877014
aF-0.044467877596616745
aF-0.0429387204349041
aF-0.03892819583415985
aF-0.03548762574791908
aF-0.04822585731744766
aF-0.041955336928367615
aF-0.03553473949432373
aF-0.046854253858327866
aF-0.04741872102022171
aF-0.0474211685359478
aF-0.04233839735388756
aF-0.04204467311501503
aF-0.04603154584765434
aF-0.03758593648672104
aF-0.046718742698431015
aF-0.04863349348306656
aF-0.046297959983348846
aF-0.04123501852154732
aF-0.05029156804084778
aF-0.05199914053082466
aF-0.056190989911556244
aF-0.050201840698719025
aF-0.05690787732601166
aF-0.0511825792491436
aF-0.047152888029813766
aF-0.0478263720870018
aF-0.048102006316185
aF-0.04764139652252197
aF-0.040305979549884796
aF-0.044314682483673096
aF-0.046281855553388596
aF-0.05083166062831879
aF-0.05540686100721359
aF-0.050299808382987976
aF-0.0414741151034832
aF-0.04917262867093086
aF-0.04554433375597
aF-0.04494418948888779
aF-0.049520619213581085
aF-0.04614591225981712
aF-0.05188392102718353
aF-0.056444212794303894
aF-0.051127079874277115
aF-0.0465223491191864
aF-0.04892398416996002
aF-0.049005333334207535
aF-0.04515257105231285
aF-0.04267040640115738
aF-0.04855646938085556
aF-0.04771718382835388
aF-0.04400422424077988
aF-0.04681552201509476
aF-0.04713274911046028
aF-0.04891500622034073
aF-0.054708659648895264
aF-0.051289480179548264
aF-0.04628702998161316
aF-0.050814397633075714
aF-0.05043860897421837
aF-0.045687004923820496
aF-0.04668986424803734
aF-0.050419989973306656
aF-0.039194006472826004
aF-0.052199382334947586
aF-0.04320530965924263
aF-0.04976077750325203
aF-0.052186787128448486
aF-0.04115735739469528
aF-0.04480729624629021
aF-0.04804146662354469
aF-0.04420207440853119
aF-0.04660702869296074
aF-0.04888405278325081
aF-0.04543549567461014
aF-0.04053954780101776
aF-0.04505371302366257
aF-0.04000123217701912
aF-0.04143420606851578
aF-0.04407348856329918
aF-0.043445270508527756
aF-0.047008391469717026
aF-0.04196390137076378
aF-0.040307097136974335
aF-0.0451112762093544
aF-0.03972899168729782
aF-0.035168711096048355
aF-0.04084464907646179
aF-0.03631443902850151
aF-0.03879520297050476
aF-0.037283532321453094
aF-0.033486124128103256
aF-0.03081810474395752
aF-0.0328410342335701
aF-0.03268511965870857
aF-0.039156876504421234
aF-0.03563855215907097
aF-0.03286564350128174
aF-0.03378100320696831
aF-0.031974535435438156
aF-0.038206133991479874
aF-0.034939710050821304
aF-0.03192741423845291
aF-0.028664013370871544
aF-0.03504867106676102
aF-0.033998019993305206
aF-0.03337080776691437
aF-0.028488246724009514
aF-0.031801480799913406
aF-0.026726068928837776
aF-0.028576912358403206
aF-0.028416961431503296
aF-0.03412594273686409
aF-0.033360376954078674
aF-0.03472775220870972
aF-0.03696773573756218
aF-0.033293843269348145
aF-0.036591313779354095
aF-0.03470548242330551
aF-0.029884934425354004
aF-0.031894050538539886
aF-0.03667255491018295
aF-0.02947821095585823
aF-0.03562123328447342
aF-0.032983921468257904
aF-0.031239964067935944
aF-0.03368321433663368
aF-0.03029927797615528
aF-0.03045237623155117
aF-0.03058774769306183
aF-0.023467468097805977
aF-0.027911683544516563
aF-0.023527396842837334
aF-0.03437906503677368
aF-0.028703933581709862
aF-0.02838442474603653
aF-0.030753381550312042
aF-0.026241227984428406
aF-0.03373703360557556
aF-0.034408487379550934
aF-0.027107514441013336
aF-0.024895645678043365
aF-0.024531392380595207
aF-0.030962157994508743
aF-0.02967636100947857
aF-0.030366279184818268
aF-0.032373394817113876
aF-0.034456729888916016
aF-0.025463663041591644
aF-0.027136975899338722
aF-0.036827072501182556
aF-0.03963175043463707
aF-0.03274649381637573
aF-0.033482782542705536
aF-0.034832850098609924
aF-0.029848139733076096
aF-0.037516817450523376
aF-0.033457834273576736
aF-0.039328109472990036
aF-0.03542977198958397
aF-0.03578265756368637
aF-0.03518139198422432
aF-0.0387951023876667
aF-0.03669334948062897
aF-0.040398336946964264
aF-0.03806668519973755
aF-0.034461505711078644
aF-0.032995156943798065
aF-0.03352486342191696
aF-0.03851241618394852
aF-0.04158803075551987
aF-0.04134722426533699
aF-0.04295123741030693
aF-0.03333166614174843
aF-0.04218440502882004
aF-0.034349195659160614
aF-0.03373274579644203
aF-0.038784243166446686
aF-0.035854775458574295
aF-0.039848603308200836
aF-0.03621554374694824
aF-0.036193545907735825
aF-0.0339227020740509
aF-0.0391647107899189
aF-0.03451293706893921
aF-0.034010160714387894
aF-0.04104781895875931
aF-0.038652800023555756
aF-0.03555048257112503
aF-0.03359389677643776
aF-0.03306303918361664
aF-0.041479140520095825
aF-0.03567156568169594
aF-0.03245724365115166
aF-0.03571987897157669
aF-0.038896236568689346
aF-0.03908625245094299
aF-0.03728089481592178
aF-0.03765314817428589
aF-0.03807482868432999
aF-0.03433319926261902
aF-0.025161879137158394
aF-0.03702644258737564
aF-0.037719812244176865
aF-0.030596373602747917
aF-0.030991844832897186
aF-0.028661135584115982
aF-0.036035262048244476
aF-0.03071998432278633
aF-0.034023307263851166
aF-0.033686619251966476
aF-0.02867337502539158
aF-0.029812032356858253
aF-0.023579740896821022
aF-0.024032533168792725
aF-0.029055921360850334
aF-0.027642302215099335
aF-0.03258732333779335
aF-0.027501236647367477
aF-0.0305795818567276
aF-0.028420396149158478
aF-0.029733961448073387
aF-0.030593594536185265
aF-0.02874659188091755
aF-0.024390555918216705
aF-0.027912959456443787
aF-0.02484547346830368
aF-0.019482076168060303
aF-0.023837890475988388
aF-0.02776399999856949
aF-0.02431657537817955
aF-0.026305552572011948
aF-0.030484668910503387
aF-0.028268394991755486
aF-0.026796551421284676
aF-0.022788211703300476
aF-0.02247345633804798
aF-0.025408001616597176
aF-0.02690105326473713
aF-0.025954565033316612
aF-0.020923882722854614
aF-0.018941445276141167
aF-0.021248716861009598
aF-0.01781589537858963
aF-0.026450829580426216
aF-0.01914309337735176
aF-0.018962165340781212
aF-0.011706063523888588
aF-0.018885428085923195
aF-0.015348485670983791
aF-0.015903368592262268
aF-0.02249002456665039
aF-0.017038842663168907
aF-0.01798059605062008
aF-0.016361217945814133
aF-0.017892131581902504
aF-0.023078469559550285
aF-0.024505235254764557
aF-0.016098907217383385
aF-0.018797339871525764
aF-0.013311993330717087
aF-0.012605585157871246
aF-0.01757814735174179
aF-0.01863802783191204
aF-0.01975446380674839
aF-0.021146172657608986
aF-0.016128001734614372
aF-0.015053322538733482
aF-0.014583390206098557
aF-0.017135636880993843
aF-0.011884246952831745
aF-0.01626271940767765
aF-0.012230513617396355
aF-0.010340746492147446
aF-0.02206304669380188
aF-0.018547406420111656
aF-0.016737716272473335
aF-0.016680726781487465
aF-0.02164558321237564
aF-0.0266006700694561
aF-0.021857529878616333
aF-0.02177540399134159
aF-0.016209613531827927
aF-0.016328932717442513
aF-0.016955947503447533
aF-0.018195731565356255
aF-0.01767130009829998
aF-0.021890690550208092
aF-0.016368407756090164
aF-0.01807977817952633
aF-0.016560999676585197
aF-0.017888566479086876
aF-0.02044433169066906
aF-0.016719643026590347
aF-0.01944741979241371
aF-0.014436792582273483
aF-0.01781846582889557
aF-0.014160719700157642
aF-0.015126227401196957
aF-0.02442658133804798
aF-0.0139846783131361
aF-0.014774630777537823
aF-0.013694973662495613
aF-0.016803177073597908
aF-0.019852951169013977
aF-0.017034262418746948
aF-0.01939884014427662
aF-0.02118699997663498
aF-0.01458714995533228
aF-0.013866862282156944
aF-0.00747817475348711
aF-0.019256550818681717
aF-0.01773897185921669
aF-0.012959328480064869
aF-0.014191214926540852
aF-0.015544181689620018
aF-0.010747736319899559
aF-0.012176701799035072
aF-0.01291702687740326
aF-0.010358147323131561
aF-0.01817975752055645
aF-0.02193521149456501
aF-0.017830027267336845
aF-0.023214396089315414
aF-0.01657092012465
aF-0.024016166105866432
aF-0.014194676652550697
aF-0.015034453012049198
aF-0.020405443385243416
aF-0.02224826253950596
aF-0.018313730135560036
aF-0.016520680859684944
aF-0.018604889512062073
aF-0.018092378973960876
aF-0.01728805899620056
aF-0.01979946717619896
aF-0.021568134427070618
aF-0.01964534819126129
aF-0.01792650669813156
aF-0.015139722265303135
aF-0.021840224042534828
aF-0.015542160719633102
aF-0.01630338467657566
aF-0.018576892092823982
aF-0.018782487139105797
aF-0.023344669491052628
aF-0.022952616214752197
aF-0.020970765501260757
aF-0.018825117498636246
aF-0.015685997903347015
aF-0.021182941272854805
aF-0.025426313281059265
aF-0.024107804521918297
aF-0.021626191213726997
aF-0.030824249610304832
aF-0.019495278596878052
aF-0.022469181567430496
aF-0.02701469510793686
aF-0.02285601757466793
aF-0.030629266053438187
aF-0.026530416682362556
aF-0.02418670617043972
aF-0.0327301099896431
aF-0.02396395243704319
aF-0.022306062281131744
aF-0.015250039286911488
aF-0.017012640833854675
aF-0.023735301569104195
aF-0.017800550907850266
aF-0.021852003410458565
aF-0.01970241591334343
aF-0.02291291020810604
aF-0.022231409326195717
aF-0.020427219569683075
aF-0.02801274135708809
aF-0.02570663020014763
aF-0.019892064854502678
aF-0.02111823484301567
aF-0.02374415285885334
aF-0.026894748210906982
aF-0.03569228947162628
aF-0.028336282819509506
aF-0.02467193454504013
aF-0.02424851432442665
aF-0.02557886764407158
aF-0.023767463862895966
aF-0.016116172075271606
aF-0.020327655598521233
aF-0.01804114319384098
aF-0.020451515913009644
aF-0.019534334540367126
aF-0.02161482721567154
aF-0.020182952284812927
aF-0.02553405798971653
aF-0.025178514420986176
aF-0.028359316289424896
aF-0.020605547353625298
aF-0.02347056195139885
aF-0.018775755539536476
aF-0.01825096644461155
aF-0.017624346539378166
aF-0.019926581531763077
aF-0.022733766585588455
aF-0.024681197479367256
aF-0.0297170951962471
aF-0.02595021016895771
aF-0.0281792264431715
aF-0.0343329943716526
aF-0.030700290575623512
aF-0.03288113325834274
aF-0.02993917092680931
aF-0.02724049612879753
aF-0.02825751155614853
aF-0.02517607808113098
aF-0.02585606649518013
aF-0.028952358290553093
aF-0.024844733998179436
aF-0.02404998429119587
aF-0.025569399818778038
aF-0.025523608550429344
aF-0.028841432183980942
aF-0.029074063524603844
aF-0.030585819855332375
aF-0.028108147904276848
aF-0.03189470246434212
aF-0.030483674257993698
aF-0.032262563705444336
aF-0.027896905317902565
aF-0.027943553403019905
aF-0.02969166450202465
aF-0.03149052709341049
aF-0.028069978579878807
aF-0.02623465284705162
aF-0.02945355884730816
aF-0.028628015890717506
aF-0.02992238663136959
aF-0.02607830986380577
aF-0.0367092527449131
aF-0.03390694782137871
aF-0.03469866141676903
aF-0.030128972604870796
aF-0.0315825454890728
aF-0.02518273890018463
aF-0.024139946326613426
aF-0.027185112237930298
aF-0.026918834075331688
aF-0.02671828120946884
aF-0.027908936142921448
aF-0.03126353397965431
aF-0.03433556854724884
aF-0.031621500849723816
aF-0.0341547429561615
aF-0.025442900136113167
aF-0.024154840037226677
aF-0.027181562036275864
aF-0.025395862758159637
aF-0.02589891105890274
aF-0.023878630250692368
aF-0.021927732974290848
aF-0.01951247826218605
aF-0.021512536332011223
aF-0.028095470741391182
aF-0.03127772733569145
aF-0.026211416348814964
aF-0.02739221788942814
aF-0.0289588775485754
aF-0.03415364772081375
aF-0.028169060125947
aF-0.02642115019261837
aF-0.027244532480835915
aF-0.025302153080701828
aF-0.02600144036114216
aF-0.024840904399752617
aF-0.028107739984989166
aF-0.024040617048740387
aF-0.020578650757670403
aF-0.025086019188165665
aF-0.030920471996068954
aF-0.024076536297798157
aF-0.020147215574979782
aF-0.023567603901028633
aF-0.018448270857334137
aF-0.014408307150006294
aF-0.024343788623809814
aF-0.023374900221824646
aF-0.025242626667022705
aF-0.022177670150995255
aF-0.02431948110461235
aF-0.026601986959576607
aF-0.025090044364333153
aF-0.0251520574092865
aF-0.021451113745570183
aF-0.023082328960299492
aF-0.026137400418519974
aF-0.027554534375667572
aF-0.02760932594537735
aF-0.02606555074453354
aF-0.023892909288406372
aF-0.027507679536938667
aF-0.025310438126325607
aF-0.026249989867210388
aF-0.03375954553484917
aF-0.029112545773386955
aF-0.029203051701188087
aF-0.03080562688410282
aF-0.03475039452314377
aF-0.021755795925855637
aF-0.031959615647792816
aF-0.025490768253803253
aF-0.028469933196902275
aF-0.02792576141655445
aF-0.021865058690309525
aF-0.01766606792807579
aF-0.023821059614419937
aF-0.027858451008796692
aF-0.023786894977092743
aF-0.0275566503405571
aF-0.0239955373108387
aF-0.02313905395567417
aF-0.024730481207370758
aF-0.023793628439307213
aF-0.018367083743214607
aF-0.02579122595489025
aF-0.025588463991880417
aF-0.02409406006336212
aF-0.020328491926193237
aF-0.025706898421049118
aF-0.01797337643802166
aF-0.02542257495224476
aF-0.020929532125592232
aF-0.02526945248246193
aF-0.022980498149991035
aF-0.027057599276304245
aF-0.020445093512535095
aF-0.024346062913537025
aF-0.025050576776266098
aF-0.02439895272254944
aF-0.02283264324069023
aF-0.023538416251540184
aF-0.018835000693798065
aF-0.02800932712852955
aF-0.031220635399222374
aF-0.02635105885565281
aF-0.020922336727380753
aF-0.02094339393079281
aF-0.02998124249279499
aF-0.0283017847687006
aF-0.0259524118155241
aF-0.03281018137931824
aF-0.021629612892866135
aF-0.02969309128820896
aF-0.025278238579630852
aF-0.02405291423201561
aF-0.01903332583606243
aF-0.02148708887398243
aF-0.020732704550027847
aF-0.021976441144943237
aF-0.03143962100148201
aF-0.024004485458135605
aF-0.026368720456957817
aF-0.028371306136250496
aF-0.027316229417920113
aF-0.024208541959524155
aF-0.020086238160729408
aF-0.02395709790289402
aF-0.028439708054065704
aF-0.023616597056388855
aF-0.019695263355970383
aF-0.02508789300918579
aF-0.02654823660850525
aF-0.0246574804186821
aF-0.02771303988993168
aF-0.027815163135528564
aF-0.03093601204454899
aF-0.03141269087791443
aF-0.02322705090045929
aF-0.028615107759833336
aF-0.024658646434545517
aF-0.020242534577846527
aF-0.028263075277209282
aF-0.021858427673578262
aF-0.02801200933754444
aF-0.025375880300998688
aF-0.023923005908727646
aF-0.02629711665213108
aF-0.019116530194878578
aF-0.016597827896475792
aF-0.018621530383825302
aF-0.016667358577251434
aF-0.022039417177438736
aF-0.01870751939713955
aF-0.022422613576054573
aF-0.0204364825040102
aF-0.021197283640503883
aF-0.01767999865114689
aF-0.021644754335284233
aF-0.01911332458257675
aF-0.014500788412988186
aF-0.02380833774805069
aF-0.01932108961045742
aF-0.018061578273773193
aF-0.01984865590929985
aF-0.021510135382413864
aF-0.023589203134179115
aF-0.01896783895790577
aF-0.019934702664613724
aF-0.020972250029444695
aF-0.022971002385020256
aF-0.023274388164281845
aF-0.018900670111179352
aF-0.02382970042526722
aF-0.021816324442625046
aF-0.020418576896190643
aF-0.019140707328915596
aF-0.016100633889436722
aF-0.020657802000641823
aF-0.015196975320577621
aF-0.026132410392165184
aF-0.018033631145954132
aF-0.01693663001060486
aF-0.025294262915849686
aF-0.019138630479574203
aF-0.018518412485718727
aF-0.018540656194090843
aF-0.018698839470744133
aF-0.022748511284589767
aF-0.021198486909270287
aF-0.02128523960709572
aF-0.01976196840405464
aF-0.019761893898248672
aF-0.01682327315211296
aF-0.02107854001224041
aF-0.024225331842899323
aF-0.02004844881594181
aF-0.017060618847608566
aF-0.01948774978518486
aF-0.019546158611774445
aF-0.0169622041285038
aF-0.017487740144133568
aF-0.01970011554658413
aF-0.027540026232600212
aF-0.019273515790700912
aF-0.016134239733219147
aF-0.018034785985946655
aF-0.015034165233373642
aF-0.019573669880628586
aF-0.016520440578460693
aF-0.018994340673089027
aF-0.017711196094751358
aF-0.012518935836851597
aF-0.010507579892873764
aF-0.01432412676513195
aF-0.012082096189260483
aF-0.01305592805147171
aF-0.012330889701843262
aF-0.012037254869937897
aF-0.014899129047989845
aF-0.013359219767153263
aF-0.011041845194995403
aF-0.01600370556116104
aF-0.01524330023676157
aF-0.010464218445122242
aF-0.011668963357806206
aF-0.02362865023314953
atp9
a.