(lp0
(lp1
F0.0
aF0.0001500001089880243
aF0.0003000001597683877
aF0.00045000019599683583
aF0.0006000002613291144
aF0.0007500002975575626
aF0.0009000003337860107
aF0.001050000311806798
aF0.0012000000569969416
aF0.0013500005006790161
aF0.0015000002458691597
aF0.0016499999910593033
aF0.0018000004347413778
aF0.0019500001799315214
aF0.002099999925121665
aF0.0022500003688037395
aF0.002400000113993883
aF0.0025499998591840267
aF0.0027000003028661013
aF0.002850000048056245
aF0.003000000026077032
aa(lp2
F29.0
aF248.121337890625
aF378.6669006347656
aF455.197265625
aF513.9614868164062
aF533.5462646484375
aF548.9581909179688
aF564.234619140625
aF577.50439453125
aF590.47265625
aF601.2042236328125
aF610.039794921875
aF617.3472290039062
aF623.3721923828125
aF628.7466430664062
aF632.2767333984375
aF635.4605712890625
aF638.265625
aF641.1015625
aF643.903076171875
aF646.22021484375
aa.