(lp0
((lp1
F0.0
aF3.00033320854709e-06
aF6.00043040321907e-06
aF9.000018508231733e-06
aF1.2000051356153563e-05
aF1.5000560779299121e-05
aF1.8000620912062004e-05
aF2.1000527340220287e-05
aF2.400006997049786e-05
aF2.700062577787321e-05
aF3.0000537662999704e-05
aF3.3000320399878547e-05
aF3.6000419640913606e-05
aF3.900035881088115e-05
aF4.200029434286989e-05
aF4.500040449784137e-05
aF4.80001290270593e-05
aF5.100041744299233e-05
aF5.400009831646457e-05
aF5.700061228708364e-05
aF6.0000529629178345e-05
aF6.300005770754069e-05
aF6.600045162485912e-05
aF6.900018343003467e-05
aF7.200055551948026e-05
aF7.50002873246558e-05
aF7.800001912983134e-05
aF8.100039121927693e-05
aF8.400012302445248e-05
aF8.700049511389807e-05
aF9.000022691907361e-05
aF9.300059173256159e-05
aF9.600027988199145e-05
aF9.900060103973374e-05
aF0.00010200040560448542
aF0.00010500004282221198
aF0.0001080003276001662
aF0.00011100005940534174
aF0.00011400043149478734
aF0.00011700016329996288
aF0.00012000053538940847
aF0.000123000267194584
aF0.00012599999899975955
aF0.00012900037108920515
aF0.0001320001028943807
aF0.00013500047498382628
aF0.00013800020678900182
aF0.0001410005788784474
aF0.00014400031068362296
aF0.0001470000424887985
aF0.0001500004145782441
aF0.00015300014638341963
aF0.00015600051847286522
aF0.00015900025027804077
aF0.00016200062236748636
aF0.0001650003541726619
aF0.00016800008597783744
aF0.00017100045806728303
aF0.00017400018987245858
aF0.00017700056196190417
aF0.0001800002937670797
aF0.00018300002557225525
aF0.00018600039766170084
aF0.0001890001294668764
aF0.00019200050155632198
aF0.00019500023336149752
aF0.0001980006054509431
aF0.00020100033725611866
aF0.0002040000690612942
aF0.0002070004411507398
aF0.00021000017295591533
aF0.00021300054504536092
aF0.00021600027685053647
aF0.000219000008655712
aF0.0002220003807451576
aF0.00022500011255033314
aF0.00022800048463977873
aF0.00023100021644495428
aF0.00023400058853439987
aF0.0002370003203395754
aF0.00024000005214475095
aF0.00024300042423419654
aF0.0002460001560393721
aF0.0002490005281288177
aF0.0002520002599339932
aF0.0002550006320234388
aF0.00025800036382861435
aF0.0002610000956337899
aF0.0002640004677232355
aF0.00026700019952841103
aF0.0002700005716178566
aF0.00027300030342303216
aF0.0002760000352282077
aF0.0002790004073176533
aF0.00028200013912282884
aF0.00028500051121227443
aF0.00028800024301745
aF0.00029100061510689557
aF0.0002940003469120711
aF0.00029700007871724665
aF0.00030000045080669224
aF0.0003030001826118678
aF0.0003060005547013134
aF0.0003090002865064889
aF0.00031200001831166446
aF0.00031500039040111005
aF0.0003180001222062856
aF0.0003210004942957312
aF0.00032400022610090673
aF0.0003270005981903523
aF0.00033000032999552786
aF0.0003330000618007034
aF0.000336000433890149
aF0.00033900016569532454
aF0.00034200053778477013
aF0.0003450002695899457
aF0.0003480000013951212
aF0.0003510003734845668
aF0.00035400010528974235
aF0.00035700047737918794
aF0.0003600002091843635
aF0.0003630005812738091
aF0.0003660003130789846
aF0.00036900004488416016
aF0.00037200041697360575
aF0.0003750001487787813
aF0.0003780005208682269
aF0.00038100025267340243
aF0.000384000624762848
aF0.00038700035656802356
aF0.0003900000883731991
aF0.0003930004604626447
aF0.00039600019226782024
aF0.00039900056435726583
aF0.00040200029616244137
aF0.0004050000279676169
aF0.0004080004000570625
aF0.00041100013186223805
aF0.00041400050395168364
aF0.0004170002357568592
aF0.0004200006078463048
aF0.0004230003396514803
aF0.00042600007145665586
aF0.00042900044354610145
aF0.000432000175351277
aF0.0004350005474407226
aF0.00043800027924589813
aF0.00044100001105107367
aF0.00044400038314051926
aF0.0004470001149456948
aF0.0004500004870351404
aF0.00045300021884031594
aF0.00045600059092976153
aF0.00045900032273493707
aF0.0004620000545401126
aF0.0004650004266295582
aF0.00046800015843473375
aF0.00047100053052417934
aF0.0004740002623293549
aF0.0004770006344188005
aF0.000480000366223976
aF0.00048300009802915156
aF0.00048600047011859715
aF0.0004890002310276031
aF0.0004920006031170487
aF0.0004950003349222243
aF0.0004980000667273998
aF0.0005010004388168454
aF0.000504000170622021
aF0.0005070005427114666
aF0.0005100002745166421
aF0.0005130000063218176
aF0.0005160003784112632
aF0.0005190001102164388
aF0.0005220004823058844
aF0.0005250002141110599
aF0.0005280005862005055
aF0.000531000318005681
aF0.0005340000498108566
aF0.0005370004219003022
aF0.0005400001537054777
aF0.0005430005257949233
aF0.0005460002576000988
aF0.0005490006296895444
aF0.00055200036149472
aF0.0005550000932998955
aF0.0005580004653893411
aF0.0005610001971945167
aF0.0005640005692839622
aF0.0005670003010891378
aF0.0005700000328943133
aF0.0005730004049837589
aF0.0005760001367889345
aF0.0005790005088783801
aF0.0005820002406835556
aF0.0005850006127730012
aF0.0005880003445781767
aF0.0005910000763833523
aF0.0005940004484727979
aF0.0005970001802779734
aF0.000600000552367419
aF0.0006030002841725945
aF0.0006060000159777701
aF0.0006090003880672157
aF0.0006120001198723912
aF0.0006150004919618368
aF0.0006180002237670124
aF0.000621000595856458
aF0.0006240003276616335
aF0.000627000059466809
aF0.0006300004315562546
aF0.0006330001633614302
aF0.0006360005354508758
aF0.0006390002672560513
aF0.0006419999990612268
aF0.0006450003711506724
aF0.000648000102955848
aF0.0006510004750452936
aF0.0006540002068504691
aF0.0006570005789399147
aF0.0006600003107450902
aF0.0006630000425502658
aF0.0006660004146397114
aF0.0006690001464448869
aF0.0006720005185343325
aF0.0006750002503395081
aF0.0006780006224289536
aF0.0006810003542341292
aF0.0006840000860393047
aF0.0006870004581287503
aF0.0006900001899339259
aF0.0006930005620233715
aF0.000696000293828547
aF0.0006990000256337225
aF0.0007020003977231681
aF0.0007050001295283437
aF0.0007080005016177893
aF0.0007110002334229648
aF0.0007140006055124104
aF0.0007170003373175859
aF0.0007200000691227615
aF0.0007230004412122071
aF0.0007260001730173826
aF0.0007290005451068282
aF0.0007320002769120038
aF0.0007350000087171793
aF0.0007380003808066249
aF0.0007410001126118004
aF0.000744000484701246
aF0.0007470002165064216
aF0.0007500005885958672
aF0.0007530003204010427
aF0.0007560000522062182
aF0.0007590004242956638
aF0.0007620001561008394
aF0.000765000528190285
aF0.0007680002599954605
aF0.0007710006320849061
aF0.0007740003638900816
aF0.0007770000956952572
aF0.0007800004677847028
aF0.0007830001995898783
aF0.0007860005716793239
aF0.0007890003034844995
aF0.000792000035289675
aF0.0007950004073791206
aF0.0007980001391842961
aF0.0008010005112737417
aF0.0008040002430789173
aF0.0008070006151683629
aF0.0008100003469735384
aF0.0008130000787787139
aF0.0008160004508681595
aF0.0008190001826733351
aF0.0008220005547627807
aF0.0008250002865679562
aF0.0008280000183731318
aF0.0008310003904625773
aF0.0008340001222677529
aF0.0008370004943571985
aF0.000840000226162374
aF0.0008430005982518196
aF0.0008460003300569952
aF0.0008490000618621707
aF0.0008520004339516163
aF0.0008550001657567918
aF0.0008580005378462374
aF0.000861000269651413
aF0.0008640006417408586
aF0.0008670003735460341
aF0.0008700001053512096
aF0.0008730004774406552
aF0.0008760002092458308
aF0.0008790005813352764
aF0.0008820003131404519
aF0.0008850000449456275
aF0.000888000417035073
aF0.0008910001488402486
aF0.0008940005209296942
aF0.0008970002527348697
aF0.0009000006248243153
aF0.0009030003566294909
aF0.0009060000884346664
aF0.000909000460524112
aF0.0009120001923292875
aF0.0009150005644187331
aF0.0009180002962239087
aF0.0009210000280290842
aF0.0009240004001185298
aF0.0009270001319237053
aF0.0009300005040131509
aF0.0009330002358183265
aF0.0009360006079077721
aF0.0009390003397129476
aF0.0009420000715181231
aF0.0009450004436075687
aF0.0009480001754127443
aF0.0009510005475021899
aF0.0009540002793073654
aF0.000957000011112541
aF0.0009600003832019866
aF0.0009630001150071621
aF0.0009660004870966077
aF0.0009690002189017832
aF0.0009720005909912288
aF0.0009750003227964044
aF0.0009780001128092408
aF0.000981000135652721
aF0.000984000158496201
aF0.0009870001813396811
aF0.0009900002041831613
aF0.0009930002270266414
aF0.0009960002498701215
aF0.0009990002727136016
aF0.0010020002955570817
aF0.0010050003184005618
aF0.001008000341244042
aF0.001011000364087522
aF0.0010140003869310021
aF0.0010170004097744823
aF0.0010200004326179624
aF0.0010230004554614425
aF0.0010260004783049226
aF0.0010290005011484027
aF0.0010320005239918828
aF0.001035000546835363
aF0.001038000569678843
aF0.0010410005925223231
aF0.0010440006153658032
aF0.0010470006382092834
aF0.0010500006610527635
aF0.0010529999854043126
aF0.0010560000082477927
aF0.0010590000310912728
aF0.001062000053934753
aF0.001065000076778233
aF0.0010680000996217132
aF0.0010710001224651933
aF0.0010740001453086734
aF0.0010770001681521535
aF0.0010800001909956336
aF0.0010830002138391137
aF0.0010860002366825938
aF0.001089000259526074
aF0.001092000282369554
aF0.0010950003052130342
aF0.0010980003280565143
aF0.0011010003508999944
aF0.0011040003737434745
aF0.0011070003965869546
aF0.0011100004194304347
aF0.0011130004422739148
aF0.001116000465117395
aF0.001119000487960875
aF0.0011220005108043551
aF0.0011250005336478353
aF0.0011280005564913154
aF0.0011310005793347955
aF0.0011340006021782756
aF0.0011370006250217557
aF0.0011400006478652358
aF0.001143000670708716
aF0.001145999995060265
aF0.0011490000179037452
aF0.0011520000407472253
aF0.0011550000635907054
aF0.0011580000864341855
aF0.0011610001092776656
aF0.0011640001321211457
aF0.0011670001549646258
aF0.001170000177808106
aF0.001173000200651586
aF0.0011760002234950662
aF0.0011790002463385463
aF0.0011820002691820264
aF0.0011850002920255065
aF0.0011880003148689866
aF0.0011910003377124667
aF0.0011940003605559468
aF0.001197000383399427
aF0.001200000406242907
aF0.0012030004290863872
aF0.0012060004519298673
aF0.0012090004747733474
aF0.0012120004976168275
aF0.0012150005204603076
aF0.0012180005433037877
aF0.0012210005661472678
aF0.001224000588990748
aF0.001227000611834228
aF0.0012300006346777081
aF0.0012330006575211883
aF0.0012360006803646684
aF0.0012390000047162175
aF0.0012420000275596976
aF0.0012450000504031777
aF0.0012480000732466578
aF0.001251000096090138
aF0.001254000118933618
aF0.0012570001417770982
aF0.0012600001646205783
aF0.0012630001874640584
aF0.0012660002103075385
aF0.0012690002331510186
aF0.0012720002559944987
aF0.0012750002788379788
aF0.001278000301681459
aF0.001281000324524939
aF0.0012840003473684192
aF0.0012870003702118993
aF0.0012900003930553794
aF0.0012930004158988595
aF0.0012960004387423396
aF0.0012990004615858197
aF0.0013020004844292998
aF0.00130500050727278
aF0.00130800053011626
aF0.0013110005529597402
aF0.0013140005758032203
aF0.0013170005986467004
aF0.0013200006214901805
aF0.0013230006443336606
aF0.0013260006671771407
aF0.0013289999915286899
aF0.00133200001437217
aF0.00133500003721565
aF0.0013380000600591302
aF0.0013410000829026103
aF0.0013440001057460904
aF0.0013470001285895705
aF0.0013500001514330506
aF0.0013530001742765307
aF0.0013560001971200109
aF0.001359000219963491
aF0.001362000242806971
aF0.0013650002656504512
aF0.0013680002884939313
aF0.0013710003113374114
aF0.0013740003341808915
aF0.0013770003570243716
aF0.0013800003798678517
aF0.0013830004027113318
aF0.001386000425554812
aF0.001389000448398292
aF0.0013920004712417722
aF0.0013950004940852523
aF0.0013980005169287324
aF0.0014010005397722125
aF0.0014040005626156926
aF0.0014070005854591727
aF0.0014100006083026528
aF0.001413000631146133
aF0.001416000653989613
aF0.0014190006768330932
aF0.0014220000011846423
aF0.0014250000240281224
aF0.0014280000468716025
aF0.0014310000697150826
aF0.0014340000925585628
aF0.0014370001154020429
aF0.001440000138245523
aF0.001443000161089003
aF0.0014460001839324832
aF0.0014490002067759633
aF0.0014520002296194434
aF0.0014550002524629235
aF0.0014580002753064036
aF0.0014610002981498837
aF0.0014640003209933639
aF0.001467000343836844
aF0.001470000366680324
aF0.0014730003895238042
aF0.0014760004123672843
aF0.0014790004352107644
aF0.0014820004580542445
aF0.0014850004808977246
aF0.0014880005037412047
aF0.0014910005265846848
aF0.001494000549428165
aF0.001497000572271645
aF0.0015000005951151252
aF0.0015030006179586053
aF0.0015060006408020854
aF0.0015090006636455655
aF0.0015120006864890456
aF0.0015150000108405948
aF0.0015180000336840749
aF0.001521000056527555
aF0.001524000079371035
aF0.0015270001022145152
aF0.0015300001250579953
aF0.0015330001479014754
aF0.0015360001707449555
aF0.0015390001935884356
aF0.0015420002164319158
aF0.0015450002392753959
aF0.001548000262118876
aF0.001551000284962356
aF0.0015540003078058362
aF0.0015570003306493163
aF0.0015600003534927964
aF0.0015630003763362765
aF0.0015660003991797566
aF0.0015690004220232368
aF0.0015720004448667169
aF0.001575000467710197
aF0.001578000490553677
aF0.0015810005133971572
aF0.0015840005362406373
aF0.0015870005590841174
aF0.0015900005819275975
aF0.0015930006047710776
aF0.0015960006276145577
aF0.0015990006504580379
aF0.001602000673301518
aF0.001605000696144998
aF0.0016080000204965472
aF0.0016110000433400273
aF0.0016140000661835074
aF0.0016170000890269876
aF0.0016200001118704677
aF0.0016230001347139478
aF0.0016260001575574279
aF0.001629000180400908
aF0.001632000203244388
aF0.0016350002260878682
aF0.0016380002489313483
aF0.0016410002717748284
aF0.0016440002946183085
aF0.0016470003174617887
aF0.0016500003403052688
aF0.0016530003631487489
aF0.001656000385992229
aF0.001659000408835709
aF0.0016620004316791892
aF0.0016650004545226693
aF0.0016680004773661494
aF0.0016710005002096295
aF0.0016740005230531096
aF0.0016770005458965898
aF0.0016800005687400699
aF0.00168300059158355
aF0.00168600061442703
aF0.0016890006372705102
aF0.0016920006601139903
aF0.0016950006829574704
aF0.0016980000073090196
aF0.0017010000301524997
aF0.0017040000529959798
aF0.00170700007583946
aF0.00171000009868294
aF0.0017130001215264201
aF0.0017160001443699002
aF0.0017190001672133803
aF0.0017220001900568604
aF0.0017250002129003406
aF0.0017280002357438207
aF0.0017310002585873008
aF0.0017340002814307809
aF0.001737000304274261
aF0.001740000327117741
aF0.0017430003499612212
aF0.0017460003728047013
aF0.0017490003956481814
aF0.0017520004184916615
aF0.0017550004413351417
aF0.0017580004641786218
aF0.0017610004870221019
aF0.001764000509865582
aF0.001767000532709062
aF0.0017700005555525422
aF0.0017730005783960223
aF0.0017760006012395024
aF0.0017790006240829825
aF0.0017820006469264627
aF0.0017850006697699428
aF0.0017880006926134229
aF0.001791000016964972
aF0.0017940000398084521
aF0.0017970000626519322
aF0.0018000000854954123
aF0.0018030001083388925
aF0.0018060001311823726
aF0.0018090001540258527
aF0.0018120001768693328
aF0.001815000199712813
aF0.001818000222556293
aF0.0018210002453997731
aF0.0018240002682432532
aF0.0018270002910867333
aF0.0018300003139302135
aF0.0018330003367736936
aF0.0018360003596171737
aF0.0018390003824606538
aF0.001842000405304134
aF0.001845000428147614
aF0.0018480004509910941
aF0.0018510004738345742
aF0.0018540004966780543
aF0.0018570005195215344
aF0.0018600005423650146
aF0.0018630005652084947
aF0.0018660005880519748
aF0.0018690006108954549
aF0.001872000633738935
aF0.001875000656582415
aF0.0018780006794258952
aF0.0018810007022693753
aF0.0018840000266209245
aF0.0018870000494644046
aF0.0018900000723078847
aF0.0018930000951513648
aF0.001896000117994845
aF0.001899000140838325
aF0.0019020001636818051
aF0.0019050001865252852
aF0.0019080002093687654
aF0.0019110002322122455
aF0.0019140002550557256
aF0.0019170002778992057
aF0.0019200003007426858
aF0.001923000323586166
aF0.001926000346429646
aF0.0019290003692731261
aF0.0019320003921166062
aF0.0019350004149600863
aF0.0019380004378035665
aF0.0019410004606470466
aF0.0019440004834905267
aF0.0019470005063340068
aF0.001950000529177487
aF0.001953000552020967
aF0.0019560004584491253
aF0.0019590004812926054
aF0.0019620005041360855
aF0.0019650005269795656
aF0.0019680005498230457
aF0.001971000572666526
aF0.001974000595510006
aF0.001977000618353486
aF0.001980000641196966
aF0.0019829999655485153
aF0.0019859999883919954
aF0.0019890000112354755
aF0.0019920000340789557
aF0.0019950000569224358
aF0.001998000079765916
aF0.002001000102609396
aF0.002004000125452876
aF0.002007000148296356
aF0.0020100001711398363
aF0.0020130001939833164
aF0.0020160002168267965
aF0.0020190002396702766
aF0.0020220002625137568
aF0.002025000285357237
aF0.002028000308200717
aF0.002031000331044197
aF0.002034000353887677
aF0.0020370003767311573
aF0.0020400003995746374
aF0.0020430004224181175
aF0.0020460004452615976
aF0.0020490004681050777
aF0.002052000490948558
aF0.002055000513792038
aF0.002058000536635518
aF0.002061000559478998
aF0.0020640005823224783
aF0.0020670006051659584
aF0.0020700006280094385
aF0.0020730006508529186
aF0.0020759999752044678
aF0.002078999998047948
aF0.002082000020891428
aF0.002085000043734908
aF0.002088000066578388
aF0.0020910000894218683
aF0.0020940001122653484
aF0.0020970001351088285
aF0.0021000001579523087
aF0.0021030001807957888
aF0.002106000203639269
aF0.002109000226482749
aF0.002112000249326229
aF0.002115000272169709
aF0.0021180002950131893
aF0.0021210003178566694
aF0.0021240003407001495
aF0.0021270003635436296
aF0.0021300003863871098
aF0.00213300040923059
aF0.00213600043207407
aF0.00213900045491755
aF0.00214200047776103
aF0.0021450005006045103
aF0.0021480005234479904
aF0.0021510005462914705
aF0.0021540005691349506
aF0.0021570005919784307
aF0.002160000614821911
aF0.002163000637665391
aF0.00216599996201694
aF0.0021689999848604202
aF0.0021720000077039003
aF0.0021750000305473804
aF0.0021780000533908606
aF0.0021810000762343407
aF0.0021840000990778208
aF0.002187000121921301
aF0.002190000144764781
aF0.002193000167608261
aF0.0021960001904517412
aF0.0021990002132952213
aF0.0022020002361387014
aF0.0022050002589821815
aF0.0022080002818256617
aF0.0022110003046691418
aF0.002214000327512622
aF0.002217000350356102
aF0.002220000373199582
aF0.002223000396043062
aF0.0022260004188865423
aF0.0022290004417300224
aF0.0022320004645735025
aF0.0022350004874169827
aF0.0022380005102604628
aF0.002241000533103943
aF0.002244000555947423
aF0.002247000578790903
aF0.002250000601634383
aF0.0022530006244778633
aF0.0022560006473213434
aF0.0022589999716728926
aF0.0022619999945163727
aF0.002265000017359853
aF0.002268000040203333
aF0.002271000063046813
aF0.002274000085890293
aF0.0022770001087337732
aF0.0022800001315772533
aF0.0022830001544207335
aF0.0022860001772642136
aF0.0022890002001076937
aF0.0022920002229511738
aF0.002295000245794654
aF0.002298000268638134
aF0.002301000291481614
aF0.0023040003143250942
aF0.0023070003371685743
aF0.0023100003600120544
aF0.0023130003828555346
aF0.0023160004056990147
aF0.0023190004285424948
aF0.002322000451385975
aF0.002325000474229455
aF0.002328000497072935
aF0.002331000519916415
aF0.0023340005427598953
aF0.0023370005656033754
aF0.0023400005884468555
aF0.0023430006112903357
aF0.0023460006341338158
aF0.002349000656977296
aF0.002351999981328845
aF0.002355000004172325
aF0.0023580000270158052
aF0.0023610000498592854
aF0.0023640000727027655
aF0.0023670000955462456
aF0.0023700001183897257
aF0.002373000141233206
aF0.002376000164076686
aF0.002379000186920166
aF0.002382000209763646
aF0.0023850002326071262
aF0.0023880002554506063
aF0.0023910002782940865
aF0.0023940003011375666
aF0.0023970003239810467
aF0.002400000346824527
aF0.002403000369668007
aF0.002406000392511487
aF0.002409000415354967
aF0.0024120004381984472
aF0.0024150004610419273
aF0.0024180004838854074
aF0.0024210005067288876
aF0.0024240005295723677
aF0.0024270005524158478
aF0.002430000575259328
aF0.002433000598102808
aF0.002436000620946288
aF0.0024390006437897682
aF0.0024420006666332483
aF0.0024449999909847975
aF0.0024480000138282776
aF0.0024510000366717577
aF0.002454000059515238
aF0.002457000082358718
aF0.002460000105202198
aF0.002463000128045678
aF0.0024660001508891582
aF0.0024690001737326384
aF0.0024720001965761185
aF0.0024750002194195986
aF0.0024780002422630787
aF0.002481000265106559
aF0.002484000287950039
aF0.002487000310793519
aF0.002490000333636999
aF0.0024930003564804792
aF0.0024960003793239594
aF0.0024990004021674395
aF0.0025020004250109196
aF0.0025050004478543997
aF0.00250800047069788
aF0.00251100049354136
aF0.00251400051638484
aF0.00251700053922832
aF0.0025200005620718002
aF0.0025230005849152803
aF0.0025260006077587605
aF0.0025290006306022406
aF0.0025320006534457207
aF0.00253499997779727
aF0.00253800000064075
aF0.00254100002348423
aF0.00254400004632771
aF0.0025470000691711903
aF0.0025500000920146704
aF0.0025530001148581505
aF0.0025560001377016306
aF0.0025590001605451107
aF0.002562000183388591
aF0.002565000206232071
aF0.002568000229075551
aF0.002571000251919031
aF0.0025740002747625113
aF0.0025770002976059914
aF0.0025800003204494715
aF0.0025830003432929516
aF0.0025860003661364317
aF0.002589000388979912
aF0.002592000411823392
aF0.002595000434666872
aF0.002598000457510352
aF0.0026010004803538322
aF0.0026040005031973124
aF0.0026070005260407925
aF0.0026100005488842726
aF0.0026130005717277527
aF0.002616000594571233
aF0.002619000617414713
aF0.002622000640258193
aF0.002625000663101673
aF0.0026279999874532223
aF0.0026310000102967024
aF0.0026340000331401825
aF0.0026370000559836626
aF0.0026400000788271427
aF0.002643000101670623
aF0.002646000124514103
aF0.002649000147357583
aF0.002652000170201063
aF0.0026550001930445433
aF0.0026580002158880234
aF0.0026610002387315035
aF0.0026640002615749836
aF0.0026670002844184637
aF0.002670000307261944
aF0.002673000330105424
aF0.002676000352948904
aF0.002679000375792384
aF0.0026820003986358643
aF0.0026850004214793444
aF0.0026880004443228245
aF0.0026910004671663046
aF0.0026940004900097847
aF0.002697000512853265
aF0.002700000535696745
aF0.002703000558540225
aF0.002706000581383705
aF0.0027090006042271852
aF0.0027120006270706654
aF0.0027150006499141455
aF0.0027180006727576256
aF0.0027209999971091747
aF0.002724000019952655
aF0.002727000042796135
aF0.002730000065639615
aF0.002733000088483095
aF0.0027360001113265753
aF0.0027390001341700554
aF0.0027420001570135355
aF0.0027450001798570156
aF0.0027480002027004957
aF0.002751000225543976
aF0.002754000248387456
aF0.002757000271230936
aF0.002760000294074416
aF0.0027630003169178963
aF0.0027660003397613764
aF0.0027690003626048565
aF0.0027720003854483366
aF0.0027750004082918167
aF0.002778000431135297
aF0.002781000453978777
aF0.002784000476822257
aF0.002787000499665737
aF0.0027900005225092173
aF0.0027930005453526974
aF0.0027960005681961775
aF0.0027990005910396576
aF0.0028020006138831377
aF0.002805000636726618
aF0.002808000659570098
aF0.002810999983921647
aF0.002814000006765127
aF0.0028170000296086073
aF0.0028200000524520874
aF0.0028230000752955675
aF0.0028260000981390476
aF0.0028290001209825277
aF0.002832000143826008
aF0.002835000166669488
aF0.002838000189512968
aF0.002841000212356448
aF0.0028440002351999283
aF0.0028470002580434084
aF0.0028500002808868885
aF0.0028530003037303686
aF0.0028560003265738487
aF0.002859000349417329
aF0.002862000372260809
aF0.002865000395104289
aF0.002868000417947769
aF0.0028710004407912493
aF0.0028740004636347294
aF0.0028770004864782095
aF0.0028800005093216896
aF0.0028830005321651697
aF0.00288600055500865
aF0.00288900057785213
aF0.00289200060069561
aF0.00289500062353909
aF0.0028980006463825703
aF0.0029010006692260504
aF0.0029039999935775995
aF0.0029070000164210796
aF0.0029100000392645597
aF0.00291300006210804
aF0.00291600008495152
aF0.002919000107795
aF0.00292200013063848
aF0.0029250001534819603
aF0.0029280001763254404
aF0.0029310001991689205
aF0.0029340002220124006
aF0.0029370002448558807
aF0.002940000267699361
aF0.002943000290542841
aF0.002946000313386321
aF0.002949000336229801
aF0.0029520003590732813
aF0.0029550003819167614
aF0.0029580004047602415
aF0.0029610004276037216
aF0.0029640004504472017
aF0.002967000473290682
aF0.002970000496134162
aF0.002973000518977642
aF0.002976000541821122
aF0.0029790005646646023
aF0.0029820005875080824
aF0.0029850006103515625
aF0.0029880006331950426
aF0.0029910006560385227
aF0.002994000678882003
aF0.002997000003233552
aF0.003000000026077032
a(lp2
F0.0
aF-1.1070502996444702
aF-1.6068062782287598
aF-2.148010492324829
aF-2.3464126586914062
aF-2.641456365585327
aF-2.9801223278045654
aF-3.111711025238037
aF-3.353478193283081
aF-3.441865921020508
aF-3.5547311305999756
aF-3.5860204696655273
aF-3.6737372875213623
aF-3.716309070587158
aF-3.735664129257202
aF-3.7404119968414307
aF-3.782264232635498
aF-3.8374786376953125
aF-3.799809694290161
aF-3.8867850303649902
aF-3.916929006576538
aF-3.9364209175109863
aF-3.9477174282073975
aF-3.9930968284606934
aF-4.031015396118164
aF-4.02130651473999
aF-4.0549116134643555
aF-4.074699401855469
aF-4.085402488708496
aF-4.063547134399414
aF-4.105800628662109
aF-4.0831146240234375
aF-4.117082595825195
aF-4.146389961242676
aF-4.173053741455078
aF-4.16774845123291
aF-4.193594932556152
aF-4.17703914642334
aF-4.202136039733887
aF-4.218329906463623
aF-4.24228048324585
aF-4.2682318687438965
aF-4.247990131378174
aF-4.304592609405518
aF-4.279933452606201
aF-4.248904705047607
aF-4.252264499664307
aF-4.255626678466797
aF-4.341543197631836
aF-4.338171482086182
aF-4.361624717712402
aF-4.331696510314941
aF-4.335209846496582
aF-4.376658916473389
aF-4.367811679840088
aF-4.3617119789123535
aF-4.397548675537109
aF-4.3974609375
aF-4.404261589050293
aF-4.409476280212402
aF-4.401338577270508
aF-4.459819316864014
aF-4.4210920333862305
aF-4.421450614929199
aF-4.443881511688232
aF-4.437136650085449
aF-4.453502178192139
aF-4.48091459274292
aF-4.485991954803467
aF-4.4662628173828125
aF-4.433181285858154
aF-4.48499870300293
aF-4.469921588897705
aF-4.474911212921143
aF-4.466095447540283
aF-4.531646728515625
aF-4.450994491577148
aF-4.472743988037109
aF-4.508291721343994
aF-4.526259422302246
aF-4.516866683959961
aF-4.5111284255981445
aF-4.514909744262695
aF-4.517861366271973
aF-4.562219619750977
aF-4.468787670135498
aF-4.469527244567871
aF-4.543859481811523
aF-4.564923286437988
aF-4.514949798583984
aF-4.5602593421936035
aF-4.5774946212768555
aF-4.55261754989624
aF-4.54898738861084
aF-4.530887603759766
aF-4.554780960083008
aF-4.558722019195557
aF-4.489236354827881
aF-4.540439605712891
aF-4.582841873168945
aF-4.5454182624816895
aF-4.602795124053955
aF-4.601968765258789
aF-4.526371002197266
aF-4.559059143066406
aF-4.555025577545166
aF-4.562712669372559
aF-4.558599948883057
aF-4.570505142211914
aF-4.612722873687744
aF-4.548396110534668
aF-4.620299816131592
aF-4.573069095611572
aF-4.544628620147705
aF-4.525595664978027
aF-4.577419757843018
aF-4.5554890632629395
aF-4.585068225860596
aF-4.54590368270874
aF-4.54197359085083
aF-4.569939136505127
aF-4.570122241973877
aF-4.514533042907715
aF-4.498416900634766
aF-4.535294055938721
aF-4.53313684463501
aF-4.512737274169922
aF-4.545876979827881
aF-4.466146469116211
aF-4.5025787353515625
aF-4.491283893585205
aF-4.5126214027404785
aF-4.48668098449707
aF-4.444454193115234
aF-4.417065620422363
aF-4.394660949707031
aF-4.394090175628662
aF-4.384925842285156
aF-4.332190990447998
aF-4.334475040435791
aF-4.290706157684326
aF-4.319810390472412
aF-4.313985824584961
aF-4.21372652053833
aF-4.245351314544678
aF-4.279662132263184
aF-4.233371257781982
aF-4.2365617752075195
aF-4.234485626220703
aF-4.216322422027588
aF-4.261760234832764
aF-4.237958908081055
aF-4.217947006225586
aF-4.199595928192139
aF-4.2386064529418945
aF-4.186312675476074
aF-4.20381498336792
aF-4.213225364685059
aF-4.196195125579834
aF-4.222006797790527
aF-4.202813148498535
aF-4.237398147583008
aF-4.1897687911987305
aF-4.209479331970215
aF-4.209181785583496
aF-4.2379865646362305
aF-4.193934917449951
aF-4.242708206176758
aF-4.23583984375
aF-4.217091083526611
aF-4.2549896240234375
aF-4.245146751403809
aF-4.211726665496826
aF-4.220136642456055
aF-4.220118045806885
aF-4.246227741241455
aF-4.227767467498779
aF-4.228503704071045
aF-4.2048773765563965
aF-4.202010631561279
aF-4.200757026672363
aF-4.237563133239746
aF-4.217836380004883
aF-4.193426132202148
aF-4.195644855499268
aF-4.203070640563965
aF-4.217589378356934
aF-4.225324630737305
aF-4.196530818939209
aF-4.199086666107178
aF-4.164381980895996
aF-4.178672790527344
aF-4.176121234893799
aF-4.150788307189941
aF-4.175928592681885
aF-4.157219886779785
aF-4.165456771850586
aF-4.17369270324707
aF-4.218862533569336
aF-4.202211856842041
aF-4.176100254058838
aF-4.180138111114502
aF-4.1722822189331055
aF-4.170392990112305
aF-4.173068523406982
aF-4.179676055908203
aF-4.1858415603637695
aF-4.164157867431641
aF-4.1505842208862305
aF-4.168440341949463
aF-4.164597511291504
aF-4.1567535400390625
aF-4.153170108795166
aF-4.14117431640625
aF-4.1599040031433105
aF-4.162261486053467
aF-4.172545909881592
aF-4.158396244049072
aF-4.143538475036621
aF-4.163867950439453
aF-4.127058029174805
aF-4.118387222290039
aF-4.1491217613220215
aF-4.125998020172119
aF-4.12058162689209
aF-4.155586242675781
aF-4.134509086608887
aF-4.133031368255615
aF-4.143573760986328
aF-4.140727519989014
aF-4.143749237060547
aF-4.120723247528076
aF-4.140809059143066
aF-4.129310131072998
aF-4.142129898071289
aF-4.117444038391113
aF-4.124480724334717
aF-4.1195244789123535
aF-4.087773323059082
aF-4.157238960266113
aF-4.111514091491699
aF-4.114612102508545
aF-4.127909183502197
aF-4.114712238311768
aF-4.140564441680908
aF-4.117909908294678
aF-4.106293201446533
aF-4.115045547485352
aF-4.10804557800293
aF-4.088437080383301
aF-4.111948490142822
aF-4.104251861572266
aF-4.113096714019775
aF-4.098081588745117
aF-4.122378349304199
aF-4.105865955352783
aF-4.109830856323242
aF-4.085892200469971
aF-4.133410453796387
aF-4.110282897949219
aF-4.1214070320129395
aF-4.100656509399414
aF-4.1312127113342285
aF-4.084345817565918
aF-4.109896183013916
aF-4.117213726043701
aF-4.098249435424805
aF-4.116212368011475
aF-4.0981764793396
aF-4.066809177398682
aF-4.079576015472412
aF-4.117190361022949
aF-4.106714725494385
aF-4.10998010635376
aF-4.100032329559326
aF-4.117539882659912
aF-4.126121520996094
aF-4.095247745513916
aF-4.115285396575928
aF-4.0859785079956055
aF-4.101340293884277
aF-4.100244522094727
aF-4.136613845825195
aF-4.114776134490967
aF-4.108707904815674
aF-4.1371355056762695
aF-4.069830894470215
aF-4.099013805389404
aF-4.083859920501709
aF-4.075949668884277
aF-4.114981174468994
aF-4.129202365875244
aF-4.100829124450684
aF-4.114108562469482
aF-4.096511363983154
aF-4.098728179931641
aF-4.110601902008057
aF-4.114770412445068
aF-4.093739986419678
aF-4.093942642211914
aF-4.102086067199707
aF-4.117574691772461
aF-4.105813980102539
aF-4.157426834106445
aF-4.114133834838867
aF-4.111625671386719
aF-4.115509986877441
aF-4.113729953765869
aF-4.132414817810059
aF-4.086632251739502
aF-4.105511665344238
aF-4.1126604080200195
aF-4.111843585968018
aF-4.120903968811035
aF-4.078360080718994
aF-4.1263203620910645
aF-4.086240291595459
aF-4.134714603424072
aF-4.102040767669678
aF-4.103781223297119
aF-4.094511032104492
aF-4.099727153778076
aF-4.102355480194092
aF-4.099022388458252
aF-4.110716819763184
aF-4.10546875
aF-4.112906455993652
aF-4.105519771575928
aF-4.107916355133057
aF-4.102678298950195
aF-4.085981369018555
aF-4.08269739151001
aF-4.142616271972656
aF-4.095282554626465
aF-4.090762138366699
aF-4.091637134552002
aF-4.090412616729736
aF-4.111847877502441
aF-4.089820861816406
aF-4.108675956726074
aF-4.09535551071167
aF-4.11670446395874
aF-4.109436511993408
aF-4.104868412017822
aF-4.122712135314941
aF-4.078644275665283
aF-4.097466945648193
aF-4.102785587310791
aF-4.106298446655273
aF-4.092526435852051
aF-4.101081371307373
aF-4.117217540740967
aF-4.096928596496582
aF-4.114099502563477
aF-4.096720218658447
aF-4.11294412612915
aF-4.106013298034668
aF-4.053874969482422
aF-4.086215972900391
aF-4.1034016609191895
aF-4.106390476226807
aF-4.09462833404541
aF-4.108331203460693
aF-4.099948406219482
aF-4.087026596069336
aF-4.102889060974121
aF-4.109370708465576
aF-4.103795528411865
aF-4.0925726890563965
aF-4.104681968688965
aF-4.081247806549072
aF-4.191514492034912
aF-4.093324184417725
aF-4.091668605804443
aF-4.066769599914551
aF-4.096068859100342
aF-4.093390941619873
aF-4.066917419433594
aF-4.084741115570068
aF-4.133261680603027
aF-4.078619003295898
aF-4.101133346557617
aF-4.088506698608398
aF-4.102118968963623
aF-4.084248065948486
aF-4.097199440002441
aF-4.100789546966553
aF-4.082305431365967
aF-4.0777587890625
aF-4.09163236618042
aF-4.104386806488037
aF-4.061541557312012
aF-4.082211017608643
aF-4.090403079986572
aF-4.084920883178711
aF-4.078017234802246
aF-4.0663042068481445
aF-4.108465194702148
aF-4.081642150878906
aF-4.075623512268066
aF-4.105696201324463
aF-4.115156173706055
aF-4.0987162590026855
aF-4.093005657196045
aF-4.095670223236084
aF-4.072686672210693
aF-4.086514472961426
aF-4.086472511291504
aF-4.095706939697266
aF-4.0648064613342285
aF-4.075348377227783
aF-4.091582775115967
aF-4.054696559906006
aF-4.087195873260498
aF-4.08911657333374
aF-4.083321571350098
aF-4.085649490356445
aF-4.097131252288818
aF-4.066484451293945
aF-4.054131984710693
aF-4.090458393096924
aF-4.083886623382568
aF-4.046226501464844
aF-4.069187641143799
aF-4.089295387268066
aF-4.110396862030029
aF-4.057022571563721
aF-4.072823524475098
aF-4.049306869506836
aF-4.07436990737915
aF-4.083529472351074
aF-4.051385402679443
aF-4.079142093658447
aF-4.086870193481445
aF-4.081965923309326
aF-4.071564197540283
aF-4.088082790374756
aF-4.086845397949219
aF-4.0842461585998535
aF-4.077592849731445
aF-4.060858249664307
aF-4.046473026275635
aF-4.072573184967041
aF-4.060667514801025
aF-4.061529159545898
aF-4.113995552062988
aF-4.069263935089111
aF-4.059579372406006
aF-4.0814337730407715
aF-4.067508697509766
aF-4.057857990264893
aF-4.074639320373535
aF-4.024223804473877
aF-4.063831806182861
aF-4.0859808921813965
aF-4.038854598999023
aF-4.074984550476074
aF-4.075105667114258
aF-4.0652689933776855
aF-4.058444023132324
aF-4.035235404968262
aF-4.052516460418701
aF-4.0554680824279785
aF-4.083218097686768
aF-4.1277594566345215
aF-4.0811567306518555
aF-4.06873083114624
aF-4.051871299743652
aF-4.056521415710449
aF-4.031419277191162
aF-4.061549663543701
aF-4.067738056182861
aF-4.074360370635986
aF-4.030609607696533
aF-4.06477689743042
aF-4.041510105133057
aF-4.062345027923584
aF-4.05515193939209
aF-4.064092636108398
aF-4.056210517883301
aF-4.057300090789795
aF-4.029216766357422
aF-4.0204925537109375
aF-4.066184997558594
aF-4.020216464996338
aF-4.039435386657715
aF-4.0458760261535645
aF-4.046722888946533
aF-4.021389007568359
aF-4.044327259063721
aF-4.046797275543213
aF-4.0513176918029785
aF-4.03425931930542
aF-4.024794578552246
aF-4.060906887054443
aF-4.063508033752441
aF-4.043847560882568
aF-4.026950359344482
aF-4.040894031524658
aF-4.014839172363281
aF-4.038630485534668
aF-4.041377544403076
aF-4.011755466461182
aF-4.044948577880859
aF-4.017748832702637
aF-3.9940836429595947
aF-4.0190911293029785
aF-4.047542572021484
aF-4.0040998458862305
aF-4.0186333656311035
aF-4.038698196411133
aF-4.027658939361572
aF-4.025702953338623
aF-4.014330863952637
aF-4.00811767578125
aF-4.023884296417236
aF-3.9849483966827393
aF-4.010146617889404
aF-4.009178161621094
aF-4.042695999145508
aF-4.011477947235107
aF-4.062074661254883
aF-4.045705795288086
aF-4.036035060882568
aF-4.018751621246338
aF-4.001270294189453
aF-4.030015468597412
aF-3.994978904724121
aF-4.041138172149658
aF-4.042603969573975
aF-4.009609699249268
aF-4.0142951011657715
aF-4.011101722717285
aF-4.008874416351318
aF-3.998279571533203
aF-4.017322540283203
aF-4.03905725479126
aF-4.02703857421875
aF-4.027378082275391
aF-4.02529764175415
aF-4.0381035804748535
aF-4.01854133605957
aF-4.037920951843262
aF-4.017515659332275
aF-4.004202365875244
aF-4.0227885246276855
aF-3.995673418045044
aF-4.037307262420654
aF-3.99467134475708
aF-4.022101879119873
aF-4.064035415649414
aF-4.0158796310424805
aF-4.040327548980713
aF-4.034499168395996
aF-3.991725206375122
aF-4.00189208984375
aF-4.022459030151367
aF-4.002706050872803
aF-4.034709453582764
aF-4.001016616821289
aF-4.050787925720215
aF-4.038569927215576
aF-3.9794039726257324
aF-4.041883945465088
aF-4.013756275177002
aF-4.053365707397461
aF-4.015678882598877
aF-4.005982398986816
aF-4.004652976989746
aF-4.0440778732299805
aF-3.994439125061035
aF-4.017574787139893
aF-4.02872896194458
aF-4.008703231811523
aF-4.0115885734558105
aF-4.006400108337402
aF-4.010396480560303
aF-4.026223182678223
aF-4.046783924102783
aF-4.013817310333252
aF-4.030786037445068
aF-3.9909701347351074
aF-4.015725612640381
aF-4.0517659187316895
aF-4.011105060577393
aF-4.041180610656738
aF-4.036961078643799
aF-4.0147833824157715
aF-4.029770374298096
aF-4.011316776275635
aF-4.016533374786377
aF-4.001909255981445
aF-4.0251312255859375
aF-3.998865842819214
aF-4.0420708656311035
aF-4.000561237335205
aF-4.016514301300049
aF-4.002472877502441
aF-4.009493350982666
aF-4.021243572235107
aF-4.009150981903076
aF-3.9909539222717285
aF-4.0291876792907715
aF-4.010213375091553
aF-4.012927532196045
aF-4.011561393737793
aF-4.031721591949463
aF-4.020252227783203
aF-4.023491859436035
aF-3.9644742012023926
aF-4.023260116577148
aF-4.0157880783081055
aF-4.018027305603027
aF-4.0095014572143555
aF-4.026419639587402
aF-4.006255626678467
aF-4.006763458251953
aF-4.003556728363037
aF-4.032134532928467
aF-4.018188953399658
aF-4.012978553771973
aF-4.025985240936279
aF-4.013303279876709
aF-4.031956672668457
aF-4.022049427032471
aF-4.025829792022705
aF-4.011914253234863
aF-3.9806289672851562
aF-4.025089263916016
aF-3.9980556964874268
aF-4.008967876434326
aF-4.029959201812744
aF-4.019136905670166
aF-4.020218849182129
aF-4.002206325531006
aF-4.016210556030273
aF-4.01303243637085
aF-4.04185676574707
aF-4.004411697387695
aF-3.9870052337646484
aF-4.021468162536621
aF-4.046496391296387
aF-3.9788413047790527
aF-4.011386394500732
aF-4.0246500968933105
aF-4.02327823638916
aF-3.9991707801818848
aF-4.029636383056641
aF-4.025358200073242
aF-4.030318737030029
aF-4.01143217086792
aF-3.974787473678589
aF-4.009328842163086
aF-4.010716438293457
aF-3.988856315612793
aF-4.007572650909424
aF-4.014514446258545
aF-4.021952152252197
aF-4.0303144454956055
aF-4.002013206481934
aF-4.060340404510498
aF-3.9001638889312744
aF-4.021326065063477
aF-4.020580291748047
aF-4.0024566650390625
aF-4.008761882781982
aF-4.036201477050781
aF-4.019857406616211
aF-4.002675533294678
aF-4.027702331542969
aF-4.020112991333008
aF-4.037313938140869
aF-4.043780326843262
aF-4.017032146453857
aF-3.9990968704223633
aF-4.0222930908203125
aF-4.049812316894531
aF-3.9976353645324707
aF-4.0001678466796875
aF-3.989290714263916
aF-4.02553129196167
aF-4.028635501861572
aF-4.039396286010742
aF-4.0244646072387695
aF-4.017346382141113
aF-4.014684677124023
aF-4.039001941680908
aF-4.024274826049805
aF-3.9585742950439453
aF-4.019201278686523
aF-4.021914005279541
aF-4.027695655822754
aF-3.993133783340454
aF-4.022331237792969
aF-3.992884874343872
aF-3.9883155822753906
aF-3.9778013229370117
aF-4.05452299118042
aF-4.009821891784668
aF-4.015389919281006
aF-4.033256530761719
aF-4.007393836975098
aF-4.017923831939697
aF-4.020585060119629
aF-4.040770053863525
aF-4.027220726013184
aF-4.039445400238037
aF-3.9931325912475586
aF-4.019613265991211
aF-4.052278995513916
aF-3.9903788566589355
aF-4.002153396606445
aF-4.010379314422607
aF-4.007501602172852
aF-4.006217002868652
aF-3.963505506515503
aF-4.01480770111084
aF-4.010838985443115
aF-4.024042129516602
aF-4.000635147094727
aF-4.011635780334473
aF-3.9977073669433594
aF-4.006810188293457
aF-3.9822239875793457
aF-3.992823600769043
aF-4.011804580688477
aF-4.008206367492676
aF-3.9926323890686035
aF-4.007608890533447
aF-4.006629467010498
aF-4.014796733856201
aF-4.011420249938965
aF-4.017590045928955
aF-4.013762474060059
aF-4.002842903137207
aF-4.01628303527832
aF-4.022811412811279
aF-4.024567604064941
aF-3.9824376106262207
aF-4.004101276397705
aF-4.010542869567871
aF-4.039999961853027
aF-4.014026641845703
aF-4.018890380859375
aF-4.0203680992126465
aF-4.024322032928467
aF-4.034160137176514
aF-4.044034481048584
aF-4.026643753051758
aF-3.9965109825134277
aF-4.006974697113037
aF-4.01328706741333
aF-4.026724815368652
aF-4.040897846221924
aF-4.002259731292725
aF-4.026719570159912
aF-4.0397820472717285
aF-4.022742748260498
aF-4.031679153442383
aF-4.006221771240234
aF-3.9987263679504395
aF-4.02716064453125
aF-4.041148662567139
aF-4.006775856018066
aF-4.029059886932373
aF-4.0108642578125
aF-4.069762706756592
aF-4.009888648986816
aF-4.027126789093018
aF-4.023777008056641
aF-4.010556221008301
aF-4.021520137786865
aF-4.030084133148193
aF-4.022427082061768
aF-4.0146074295043945
aF-4.04717493057251
aF-4.023496627807617
aF-4.0224833488464355
aF-4.016080379486084
aF-4.018364906311035
aF-4.001202583312988
aF-4.0234694480896
aF-4.055675506591797
aF-4.036618709564209
aF-4.032772541046143
aF-4.0253825187683105
aF-4.00015115737915
aF-4.016455173492432
aF-3.993907928466797
aF-4.031878471374512
aF-4.025481224060059
aF-4.001833915710449
aF-4.0266242027282715
aF-4.035912036895752
aF-4.010455131530762
aF-4.0146260261535645
aF-4.023036003112793
aF-4.02039098739624
aF-4.022176742553711
aF-4.0220255851745605
aF-4.024275302886963
aF-4.018947124481201
aF-3.984957695007324
aF-4.005341053009033
aF-4.045982837677002
aF-3.9832332134246826
aF-3.9868788719177246
aF-4.046735763549805
aF-3.9999449253082275
aF-4.08888578414917
aF-4.021535873413086
aF-4.03356409072876
aF-4.0093488693237305
aF-4.0087456703186035
aF-4.015432834625244
aF-4.0110979080200195
aF-3.9990484714508057
aF-4.03455924987793
aF-4.016960144042969
aF-4.0371623039245605
aF-4.0108232498168945
aF-4.00706148147583
aF-4.054778575897217
aF-4.0162763595581055
aF-4.042393207550049
aF-4.017552375793457
aF-4.001336574554443
aF-3.9985105991363525
aF-4.015753269195557
aF-4.039839744567871
aF-4.050466060638428
aF-4.04307222366333
aF-4.018837928771973
aF-4.031860828399658
aF-4.015857696533203
aF-4.040772914886475
aF-4.007038116455078
aF-4.037586688995361
aF-4.006467342376709
aF-4.032800197601318
aF-4.030130863189697
aF-4.032578468322754
aF-4.014106273651123
aF-4.031593322753906
aF-4.019610404968262
aF-3.9868857860565186
aF-4.004586219787598
aF-4.0475544929504395
aF-3.999917984008789
aF-4.018893241882324
aF-3.9831371307373047
aF-4.000588417053223
aF-4.027124404907227
aF-4.039787292480469
aF-4.004017353057861
aF-4.003742694854736
aF-4.000626564025879
aF-3.9909558296203613
aF-4.036229610443115
aF-4.011928081512451
aF-4.021703243255615
aF-4.006152153015137
aF-4.018221855163574
aF-4.045997142791748
aF-4.003331184387207
aF-4.007048606872559
aF-4.025576591491699
aF-4.012996196746826
aF-3.9921650886535645
aF-4.004379749298096
aF-4.014505863189697
aF-4.0401153564453125
aF-4.004359722137451
aF-4.022957801818848
aF-4.004100799560547
aF-4.02816915512085
aF-4.004295349121094
aF-4.027958393096924
aF-4.0251054763793945
aF-4.0284743309021
aF-4.006680488586426
aF-4.034188270568848
aF-4.0489959716796875
aF-4.059360504150391
aF-4.042842864990234
aF-4.113895893096924
aF-4.060160160064697
aF-4.083176612854004
aF-4.090798854827881
aF-4.041895866394043
aF-4.070611476898193
aF-4.0983452796936035
aF-4.120358943939209
aF-4.112438678741455
aF-4.095379829406738
aF-4.112685680389404
aF-4.094194412231445
aF-4.108224868774414
aF-4.121725559234619
aF-4.093512535095215
aF-4.090897083282471
aF-4.119719505310059
aF-4.120810031890869
aF-4.091724872589111
aF-4.13579797744751
aF-4.131714344024658
aF-4.156483173370361
aF-4.148379325866699
aF-4.145806789398193
aF-4.132697582244873
aF-4.127687454223633
aF-4.150785446166992
aF-4.148449420928955
aF-4.144556045532227
aF-4.170745849609375
aF-4.133624076843262
aF-4.182911396026611
aF-4.18097448348999
aF-4.211495399475098
aF-4.20957612991333
aF-4.183072090148926
aF-4.174704074859619
aF-4.193835735321045
aF-4.165086269378662
aF-4.159050941467285
aF-4.188241481781006
aF-4.19918155670166
aF-4.222452640533447
aF-4.239792346954346
aF-4.17636251449585
aF-4.2009477615356445
aF-4.217329502105713
aF-4.223862171173096
aF-4.207896709442139
aF-4.2330169677734375
aF-4.214231014251709
aF-4.235410690307617
aF-4.215644359588623
aF-4.177761077880859
aF-4.196639060974121
aF-4.250497817993164
aF-4.215606212615967
aF-4.25008487701416
aF-4.2365288734436035
aF-4.226589679718018
aF-4.252585411071777
aF-4.217339515686035
aF-4.220372200012207
aF-4.222967624664307
aF-4.230825424194336
aF-4.219274520874023
aF-4.23440408706665
aF-4.216696739196777
aF-4.234189510345459
aF-4.251022815704346
aF-4.1938557624816895
aF-4.195080757141113
aF-4.262960433959961
aF-4.209809303283691
aF-4.2325921058654785
aF-4.277056694030762
aF-4.200392723083496
aF-4.185030460357666
aF-4.250402927398682
aF-4.22367000579834
aF-4.250077724456787
aF-4.246614456176758
aF-4.243540287017822
aF-4.228547096252441
aF-4.24607515335083
aF-4.249444007873535
aF-4.256631374359131
aF-4.232420444488525
aF-4.246513843536377
aF-4.231383323669434
aF-4.2513580322265625
aF-4.2269086837768555
aF-4.214717864990234
aF-4.245059490203857
aF-4.242009162902832
aF-4.293592929840088
aF-4.229178428649902
aF-4.256169319152832
aF-4.224465370178223
aF-4.2212605476379395
aF-4.241457939147949
aF-4.243552207946777
aF-4.231911659240723
aF-4.223662376403809
aF-4.241319179534912
aF-4.224582195281982
aF-4.2395920753479
aF-4.2435688972473145
aF-4.187982559204102
aF-4.250821590423584
aF-4.240384101867676
aF-4.239875316619873
aF-4.227349758148193
aF-4.233000755310059
aF-4.2189412117004395
aF-4.207763195037842
atp3
a((lp4
F0.0
aF3.00033320854709e-06
aF6.00043040321907e-06
aF9.000018508231733e-06
aF1.2000051356153563e-05
aF1.5000560779299121e-05
aF1.8000620912062004e-05
aF2.1000527340220287e-05
aF2.400006997049786e-05
aF2.700062577787321e-05
aF3.0000537662999704e-05
aF3.3000320399878547e-05
aF3.6000419640913606e-05
aF3.900035881088115e-05
aF4.200029434286989e-05
aF4.500040449784137e-05
aF4.80001290270593e-05
aF5.100041744299233e-05
aF5.400009831646457e-05
aF5.700061228708364e-05
aF6.0000529629178345e-05
aF6.300005770754069e-05
aF6.600045162485912e-05
aF6.900018343003467e-05
aF7.200055551948026e-05
aF7.50002873246558e-05
aF7.800001912983134e-05
aF8.100039121927693e-05
aF8.400012302445248e-05
aF8.700049511389807e-05
aF9.000022691907361e-05
aF9.300059173256159e-05
aF9.600027988199145e-05
aF9.900060103973374e-05
aF0.00010200040560448542
aF0.00010500004282221198
aF0.0001080003276001662
aF0.00011100005940534174
aF0.00011400043149478734
aF0.00011700016329996288
aF0.00012000053538940847
aF0.000123000267194584
aF0.00012599999899975955
aF0.00012900037108920515
aF0.0001320001028943807
aF0.00013500047498382628
aF0.00013800020678900182
aF0.0001410005788784474
aF0.00014400031068362296
aF0.0001470000424887985
aF0.0001500004145782441
aF0.00015300014638341963
aF0.00015600051847286522
aF0.00015900025027804077
aF0.00016200062236748636
aF0.0001650003541726619
aF0.00016800008597783744
aF0.00017100045806728303
aF0.00017400018987245858
aF0.00017700056196190417
aF0.0001800002937670797
aF0.00018300002557225525
aF0.00018600039766170084
aF0.0001890001294668764
aF0.00019200050155632198
aF0.00019500023336149752
aF0.0001980006054509431
aF0.00020100033725611866
aF0.0002040000690612942
aF0.0002070004411507398
aF0.00021000017295591533
aF0.00021300054504536092
aF0.00021600027685053647
aF0.000219000008655712
aF0.0002220003807451576
aF0.00022500011255033314
aF0.00022800048463977873
aF0.00023100021644495428
aF0.00023400058853439987
aF0.0002370003203395754
aF0.00024000005214475095
aF0.00024300042423419654
aF0.0002460001560393721
aF0.0002490005281288177
aF0.0002520002599339932
aF0.0002550006320234388
aF0.00025800036382861435
aF0.0002610000956337899
aF0.0002640004677232355
aF0.00026700019952841103
aF0.0002700005716178566
aF0.00027300030342303216
aF0.0002760000352282077
aF0.0002790004073176533
aF0.00028200013912282884
aF0.00028500051121227443
aF0.00028800024301745
aF0.00029100061510689557
aF0.0002940003469120711
aF0.00029700007871724665
aF0.00030000045080669224
aF0.0003030001826118678
aF0.0003060005547013134
aF0.0003090002865064889
aF0.00031200001831166446
aF0.00031500039040111005
aF0.0003180001222062856
aF0.0003210004942957312
aF0.00032400022610090673
aF0.0003270005981903523
aF0.00033000032999552786
aF0.0003330000618007034
aF0.000336000433890149
aF0.00033900016569532454
aF0.00034200053778477013
aF0.0003450002695899457
aF0.0003480000013951212
aF0.0003510003734845668
aF0.00035400010528974235
aF0.00035700047737918794
aF0.0003600002091843635
aF0.0003630005812738091
aF0.0003660003130789846
aF0.00036900004488416016
aF0.00037200041697360575
aF0.0003750001487787813
aF0.0003780005208682269
aF0.00038100025267340243
aF0.000384000624762848
aF0.00038700035656802356
aF0.0003900000883731991
aF0.0003930004604626447
aF0.00039600019226782024
aF0.00039900056435726583
aF0.00040200029616244137
aF0.0004050000279676169
aF0.0004080004000570625
aF0.00041100013186223805
aF0.00041400050395168364
aF0.0004170002357568592
aF0.0004200006078463048
aF0.0004230003396514803
aF0.00042600007145665586
aF0.00042900044354610145
aF0.000432000175351277
aF0.0004350005474407226
aF0.00043800027924589813
aF0.00044100001105107367
aF0.00044400038314051926
aF0.0004470001149456948
aF0.0004500004870351404
aF0.00045300021884031594
aF0.00045600059092976153
aF0.00045900032273493707
aF0.0004620000545401126
aF0.0004650004266295582
aF0.00046800015843473375
aF0.00047100053052417934
aF0.0004740002623293549
aF0.0004770006344188005
aF0.000480000366223976
aF0.00048300009802915156
aF0.00048600047011859715
aF0.0004890002310276031
aF0.0004920006031170487
aF0.0004950003349222243
aF0.0004980000667273998
aF0.0005010004388168454
aF0.000504000170622021
aF0.0005070005427114666
aF0.0005100002745166421
aF0.0005130000063218176
aF0.0005160003784112632
aF0.0005190001102164388
aF0.0005220004823058844
aF0.0005250002141110599
aF0.0005280005862005055
aF0.000531000318005681
aF0.0005340000498108566
aF0.0005370004219003022
aF0.0005400001537054777
aF0.0005430005257949233
aF0.0005460002576000988
aF0.0005490006296895444
aF0.00055200036149472
aF0.0005550000932998955
aF0.0005580004653893411
aF0.0005610001971945167
aF0.0005640005692839622
aF0.0005670003010891378
aF0.0005700000328943133
aF0.0005730004049837589
aF0.0005760001367889345
aF0.0005790005088783801
aF0.0005820002406835556
aF0.0005850006127730012
aF0.0005880003445781767
aF0.0005910000763833523
aF0.0005940004484727979
aF0.0005970001802779734
aF0.000600000552367419
aF0.0006030002841725945
aF0.0006060000159777701
aF0.0006090003880672157
aF0.0006120001198723912
aF0.0006150004919618368
aF0.0006180002237670124
aF0.000621000595856458
aF0.0006240003276616335
aF0.000627000059466809
aF0.0006300004315562546
aF0.0006330001633614302
aF0.0006360005354508758
aF0.0006390002672560513
aF0.0006419999990612268
aF0.0006450003711506724
aF0.000648000102955848
aF0.0006510004750452936
aF0.0006540002068504691
aF0.0006570005789399147
aF0.0006600003107450902
aF0.0006630000425502658
aF0.0006660004146397114
aF0.0006690001464448869
aF0.0006720005185343325
aF0.0006750002503395081
aF0.0006780006224289536
aF0.0006810003542341292
aF0.0006840000860393047
aF0.0006870004581287503
aF0.0006900001899339259
aF0.0006930005620233715
aF0.000696000293828547
aF0.0006990000256337225
aF0.0007020003977231681
aF0.0007050001295283437
aF0.0007080005016177893
aF0.0007110002334229648
aF0.0007140006055124104
aF0.0007170003373175859
aF0.0007200000691227615
aF0.0007230004412122071
aF0.0007260001730173826
aF0.0007290005451068282
aF0.0007320002769120038
aF0.0007350000087171793
aF0.0007380003808066249
aF0.0007410001126118004
aF0.000744000484701246
aF0.0007470002165064216
aF0.0007500005885958672
aF0.0007530003204010427
aF0.0007560000522062182
aF0.0007590004242956638
aF0.0007620001561008394
aF0.000765000528190285
aF0.0007680002599954605
aF0.0007710006320849061
aF0.0007740003638900816
aF0.0007770000956952572
aF0.0007800004677847028
aF0.0007830001995898783
aF0.0007860005716793239
aF0.0007890003034844995
aF0.000792000035289675
aF0.0007950004073791206
aF0.0007980001391842961
aF0.0008010005112737417
aF0.0008040002430789173
aF0.0008070006151683629
aF0.0008100003469735384
aF0.0008130000787787139
aF0.0008160004508681595
aF0.0008190001826733351
aF0.0008220005547627807
aF0.0008250002865679562
aF0.0008280000183731318
aF0.0008310003904625773
aF0.0008340001222677529
aF0.0008370004943571985
aF0.000840000226162374
aF0.0008430005982518196
aF0.0008460003300569952
aF0.0008490000618621707
aF0.0008520004339516163
aF0.0008550001657567918
aF0.0008580005378462374
aF0.000861000269651413
aF0.0008640006417408586
aF0.0008670003735460341
aF0.0008700001053512096
aF0.0008730004774406552
aF0.0008760002092458308
aF0.0008790005813352764
aF0.0008820003131404519
aF0.0008850000449456275
aF0.000888000417035073
aF0.0008910001488402486
aF0.0008940005209296942
aF0.0008970002527348697
aF0.0009000006248243153
aF0.0009030003566294909
aF0.0009060000884346664
aF0.000909000460524112
aF0.0009120001923292875
aF0.0009150005644187331
aF0.0009180002962239087
aF0.0009210000280290842
aF0.0009240004001185298
aF0.0009270001319237053
aF0.0009300005040131509
aF0.0009330002358183265
aF0.0009360006079077721
aF0.0009390003397129476
aF0.0009420000715181231
aF0.0009450004436075687
aF0.0009480001754127443
aF0.0009510005475021899
aF0.0009540002793073654
aF0.000957000011112541
aF0.0009600003832019866
aF0.0009630001150071621
aF0.0009660004870966077
aF0.0009690002189017832
aF0.0009720005909912288
aF0.0009750003227964044
aF0.0009780001128092408
aF0.000981000135652721
aF0.000984000158496201
aF0.0009870001813396811
aF0.0009900002041831613
aF0.0009930002270266414
aF0.0009960002498701215
aF0.0009990002727136016
aF0.0010020002955570817
aF0.0010050003184005618
aF0.001008000341244042
aF0.001011000364087522
aF0.0010140003869310021
aF0.0010170004097744823
aF0.0010200004326179624
aF0.0010230004554614425
aF0.0010260004783049226
aF0.0010290005011484027
aF0.0010320005239918828
aF0.001035000546835363
aF0.001038000569678843
aF0.0010410005925223231
aF0.0010440006153658032
aF0.0010470006382092834
aF0.0010500006610527635
aF0.0010529999854043126
aF0.0010560000082477927
aF0.0010590000310912728
aF0.001062000053934753
aF0.001065000076778233
aF0.0010680000996217132
aF0.0010710001224651933
aF0.0010740001453086734
aF0.0010770001681521535
aF0.0010800001909956336
aF0.0010830002138391137
aF0.0010860002366825938
aF0.001089000259526074
aF0.001092000282369554
aF0.0010950003052130342
aF0.0010980003280565143
aF0.0011010003508999944
aF0.0011040003737434745
aF0.0011070003965869546
aF0.0011100004194304347
aF0.0011130004422739148
aF0.001116000465117395
aF0.001119000487960875
aF0.0011220005108043551
aF0.0011250005336478353
aF0.0011280005564913154
aF0.0011310005793347955
aF0.0011340006021782756
aF0.0011370006250217557
aF0.0011400006478652358
aF0.001143000670708716
aF0.001145999995060265
aF0.0011490000179037452
aF0.0011520000407472253
aF0.0011550000635907054
aF0.0011580000864341855
aF0.0011610001092776656
aF0.0011640001321211457
aF0.0011670001549646258
aF0.001170000177808106
aF0.001173000200651586
aF0.0011760002234950662
aF0.0011790002463385463
aF0.0011820002691820264
aF0.0011850002920255065
aF0.0011880003148689866
aF0.0011910003377124667
aF0.0011940003605559468
aF0.001197000383399427
aF0.001200000406242907
aF0.0012030004290863872
aF0.0012060004519298673
aF0.0012090004747733474
aF0.0012120004976168275
aF0.0012150005204603076
aF0.0012180005433037877
aF0.0012210005661472678
aF0.001224000588990748
aF0.001227000611834228
aF0.0012300006346777081
aF0.0012330006575211883
aF0.0012360006803646684
aF0.0012390000047162175
aF0.0012420000275596976
aF0.0012450000504031777
aF0.0012480000732466578
aF0.001251000096090138
aF0.001254000118933618
aF0.0012570001417770982
aF0.0012600001646205783
aF0.0012630001874640584
aF0.0012660002103075385
aF0.0012690002331510186
aF0.0012720002559944987
aF0.0012750002788379788
aF0.001278000301681459
aF0.001281000324524939
aF0.0012840003473684192
aF0.0012870003702118993
aF0.0012900003930553794
aF0.0012930004158988595
aF0.0012960004387423396
aF0.0012990004615858197
aF0.0013020004844292998
aF0.00130500050727278
aF0.00130800053011626
aF0.0013110005529597402
aF0.0013140005758032203
aF0.0013170005986467004
aF0.0013200006214901805
aF0.0013230006443336606
aF0.0013260006671771407
aF0.0013289999915286899
aF0.00133200001437217
aF0.00133500003721565
aF0.0013380000600591302
aF0.0013410000829026103
aF0.0013440001057460904
aF0.0013470001285895705
aF0.0013500001514330506
aF0.0013530001742765307
aF0.0013560001971200109
aF0.001359000219963491
aF0.001362000242806971
aF0.0013650002656504512
aF0.0013680002884939313
aF0.0013710003113374114
aF0.0013740003341808915
aF0.0013770003570243716
aF0.0013800003798678517
aF0.0013830004027113318
aF0.001386000425554812
aF0.001389000448398292
aF0.0013920004712417722
aF0.0013950004940852523
aF0.0013980005169287324
aF0.0014010005397722125
aF0.0014040005626156926
aF0.0014070005854591727
aF0.0014100006083026528
aF0.001413000631146133
aF0.001416000653989613
aF0.0014190006768330932
aF0.0014220000011846423
aF0.0014250000240281224
aF0.0014280000468716025
aF0.0014310000697150826
aF0.0014340000925585628
aF0.0014370001154020429
aF0.001440000138245523
aF0.001443000161089003
aF0.0014460001839324832
aF0.0014490002067759633
aF0.0014520002296194434
aF0.0014550002524629235
aF0.0014580002753064036
aF0.0014610002981498837
aF0.0014640003209933639
aF0.001467000343836844
aF0.001470000366680324
aF0.0014730003895238042
aF0.0014760004123672843
aF0.0014790004352107644
aF0.0014820004580542445
aF0.0014850004808977246
aF0.0014880005037412047
aF0.0014910005265846848
aF0.001494000549428165
aF0.001497000572271645
aF0.0015000005951151252
aF0.0015030006179586053
aF0.0015060006408020854
aF0.0015090006636455655
aF0.0015120006864890456
aF0.0015150000108405948
aF0.0015180000336840749
aF0.001521000056527555
aF0.001524000079371035
aF0.0015270001022145152
aF0.0015300001250579953
aF0.0015330001479014754
aF0.0015360001707449555
aF0.0015390001935884356
aF0.0015420002164319158
aF0.0015450002392753959
aF0.001548000262118876
aF0.001551000284962356
aF0.0015540003078058362
aF0.0015570003306493163
aF0.0015600003534927964
aF0.0015630003763362765
aF0.0015660003991797566
aF0.0015690004220232368
aF0.0015720004448667169
aF0.001575000467710197
aF0.001578000490553677
aF0.0015810005133971572
aF0.0015840005362406373
aF0.0015870005590841174
aF0.0015900005819275975
aF0.0015930006047710776
aF0.0015960006276145577
aF0.0015990006504580379
aF0.001602000673301518
aF0.001605000696144998
aF0.0016080000204965472
aF0.0016110000433400273
aF0.0016140000661835074
aF0.0016170000890269876
aF0.0016200001118704677
aF0.0016230001347139478
aF0.0016260001575574279
aF0.001629000180400908
aF0.001632000203244388
aF0.0016350002260878682
aF0.0016380002489313483
aF0.0016410002717748284
aF0.0016440002946183085
aF0.0016470003174617887
aF0.0016500003403052688
aF0.0016530003631487489
aF0.001656000385992229
aF0.001659000408835709
aF0.0016620004316791892
aF0.0016650004545226693
aF0.0016680004773661494
aF0.0016710005002096295
aF0.0016740005230531096
aF0.0016770005458965898
aF0.0016800005687400699
aF0.00168300059158355
aF0.00168600061442703
aF0.0016890006372705102
aF0.0016920006601139903
aF0.0016950006829574704
aF0.0016980000073090196
aF0.0017010000301524997
aF0.0017040000529959798
aF0.00170700007583946
aF0.00171000009868294
aF0.0017130001215264201
aF0.0017160001443699002
aF0.0017190001672133803
aF0.0017220001900568604
aF0.0017250002129003406
aF0.0017280002357438207
aF0.0017310002585873008
aF0.0017340002814307809
aF0.001737000304274261
aF0.001740000327117741
aF0.0017430003499612212
aF0.0017460003728047013
aF0.0017490003956481814
aF0.0017520004184916615
aF0.0017550004413351417
aF0.0017580004641786218
aF0.0017610004870221019
aF0.001764000509865582
aF0.001767000532709062
aF0.0017700005555525422
aF0.0017730005783960223
aF0.0017760006012395024
aF0.0017790006240829825
aF0.0017820006469264627
aF0.0017850006697699428
aF0.0017880006926134229
aF0.001791000016964972
aF0.0017940000398084521
aF0.0017970000626519322
aF0.0018000000854954123
aF0.0018030001083388925
aF0.0018060001311823726
aF0.0018090001540258527
aF0.0018120001768693328
aF0.001815000199712813
aF0.001818000222556293
aF0.0018210002453997731
aF0.0018240002682432532
aF0.0018270002910867333
aF0.0018300003139302135
aF0.0018330003367736936
aF0.0018360003596171737
aF0.0018390003824606538
aF0.001842000405304134
aF0.001845000428147614
aF0.0018480004509910941
aF0.0018510004738345742
aF0.0018540004966780543
aF0.0018570005195215344
aF0.0018600005423650146
aF0.0018630005652084947
aF0.0018660005880519748
aF0.0018690006108954549
aF0.001872000633738935
aF0.001875000656582415
aF0.0018780006794258952
aF0.0018810007022693753
aF0.0018840000266209245
aF0.0018870000494644046
aF0.0018900000723078847
aF0.0018930000951513648
aF0.001896000117994845
aF0.001899000140838325
aF0.0019020001636818051
aF0.0019050001865252852
aF0.0019080002093687654
aF0.0019110002322122455
aF0.0019140002550557256
aF0.0019170002778992057
aF0.0019200003007426858
aF0.001923000323586166
aF0.001926000346429646
aF0.0019290003692731261
aF0.0019320003921166062
aF0.0019350004149600863
aF0.0019380004378035665
aF0.0019410004606470466
aF0.0019440004834905267
aF0.0019470005063340068
aF0.001950000529177487
aF0.001953000552020967
aF0.0019560004584491253
aF0.0019590004812926054
aF0.0019620005041360855
aF0.0019650005269795656
aF0.0019680005498230457
aF0.001971000572666526
aF0.001974000595510006
aF0.001977000618353486
aF0.001980000641196966
aF0.0019829999655485153
aF0.0019859999883919954
aF0.0019890000112354755
aF0.0019920000340789557
aF0.0019950000569224358
aF0.001998000079765916
aF0.002001000102609396
aF0.002004000125452876
aF0.002007000148296356
aF0.0020100001711398363
aF0.0020130001939833164
aF0.0020160002168267965
aF0.0020190002396702766
aF0.0020220002625137568
aF0.002025000285357237
aF0.002028000308200717
aF0.002031000331044197
aF0.002034000353887677
aF0.0020370003767311573
aF0.0020400003995746374
aF0.0020430004224181175
aF0.0020460004452615976
aF0.0020490004681050777
aF0.002052000490948558
aF0.002055000513792038
aF0.002058000536635518
aF0.002061000559478998
aF0.0020640005823224783
aF0.0020670006051659584
aF0.0020700006280094385
aF0.0020730006508529186
aF0.0020759999752044678
aF0.002078999998047948
aF0.002082000020891428
aF0.002085000043734908
aF0.002088000066578388
aF0.0020910000894218683
aF0.0020940001122653484
aF0.0020970001351088285
aF0.0021000001579523087
aF0.0021030001807957888
aF0.002106000203639269
aF0.002109000226482749
aF0.002112000249326229
aF0.002115000272169709
aF0.0021180002950131893
aF0.0021210003178566694
aF0.0021240003407001495
aF0.0021270003635436296
aF0.0021300003863871098
aF0.00213300040923059
aF0.00213600043207407
aF0.00213900045491755
aF0.00214200047776103
aF0.0021450005006045103
aF0.0021480005234479904
aF0.0021510005462914705
aF0.0021540005691349506
aF0.0021570005919784307
aF0.002160000614821911
aF0.002163000637665391
aF0.00216599996201694
aF0.0021689999848604202
aF0.0021720000077039003
aF0.0021750000305473804
aF0.0021780000533908606
aF0.0021810000762343407
aF0.0021840000990778208
aF0.002187000121921301
aF0.002190000144764781
aF0.002193000167608261
aF0.0021960001904517412
aF0.0021990002132952213
aF0.0022020002361387014
aF0.0022050002589821815
aF0.0022080002818256617
aF0.0022110003046691418
aF0.002214000327512622
aF0.002217000350356102
aF0.002220000373199582
aF0.002223000396043062
aF0.0022260004188865423
aF0.0022290004417300224
aF0.0022320004645735025
aF0.0022350004874169827
aF0.0022380005102604628
aF0.002241000533103943
aF0.002244000555947423
aF0.002247000578790903
aF0.002250000601634383
aF0.0022530006244778633
aF0.0022560006473213434
aF0.0022589999716728926
aF0.0022619999945163727
aF0.002265000017359853
aF0.002268000040203333
aF0.002271000063046813
aF0.002274000085890293
aF0.0022770001087337732
aF0.0022800001315772533
aF0.0022830001544207335
aF0.0022860001772642136
aF0.0022890002001076937
aF0.0022920002229511738
aF0.002295000245794654
aF0.002298000268638134
aF0.002301000291481614
aF0.0023040003143250942
aF0.0023070003371685743
aF0.0023100003600120544
aF0.0023130003828555346
aF0.0023160004056990147
aF0.0023190004285424948
aF0.002322000451385975
aF0.002325000474229455
aF0.002328000497072935
aF0.002331000519916415
aF0.0023340005427598953
aF0.0023370005656033754
aF0.0023400005884468555
aF0.0023430006112903357
aF0.0023460006341338158
aF0.002349000656977296
aF0.002351999981328845
aF0.002355000004172325
aF0.0023580000270158052
aF0.0023610000498592854
aF0.0023640000727027655
aF0.0023670000955462456
aF0.0023700001183897257
aF0.002373000141233206
aF0.002376000164076686
aF0.002379000186920166
aF0.002382000209763646
aF0.0023850002326071262
aF0.0023880002554506063
aF0.0023910002782940865
aF0.0023940003011375666
aF0.0023970003239810467
aF0.002400000346824527
aF0.002403000369668007
aF0.002406000392511487
aF0.002409000415354967
aF0.0024120004381984472
aF0.0024150004610419273
aF0.0024180004838854074
aF0.0024210005067288876
aF0.0024240005295723677
aF0.0024270005524158478
aF0.002430000575259328
aF0.002433000598102808
aF0.002436000620946288
aF0.0024390006437897682
aF0.0024420006666332483
aF0.0024449999909847975
aF0.0024480000138282776
aF0.0024510000366717577
aF0.002454000059515238
aF0.002457000082358718
aF0.002460000105202198
aF0.002463000128045678
aF0.0024660001508891582
aF0.0024690001737326384
aF0.0024720001965761185
aF0.0024750002194195986
aF0.0024780002422630787
aF0.002481000265106559
aF0.002484000287950039
aF0.002487000310793519
aF0.002490000333636999
aF0.0024930003564804792
aF0.0024960003793239594
aF0.0024990004021674395
aF0.0025020004250109196
aF0.0025050004478543997
aF0.00250800047069788
aF0.00251100049354136
aF0.00251400051638484
aF0.00251700053922832
aF0.0025200005620718002
aF0.0025230005849152803
aF0.0025260006077587605
aF0.0025290006306022406
aF0.0025320006534457207
aF0.00253499997779727
aF0.00253800000064075
aF0.00254100002348423
aF0.00254400004632771
aF0.0025470000691711903
aF0.0025500000920146704
aF0.0025530001148581505
aF0.0025560001377016306
aF0.0025590001605451107
aF0.002562000183388591
aF0.002565000206232071
aF0.002568000229075551
aF0.002571000251919031
aF0.0025740002747625113
aF0.0025770002976059914
aF0.0025800003204494715
aF0.0025830003432929516
aF0.0025860003661364317
aF0.002589000388979912
aF0.002592000411823392
aF0.002595000434666872
aF0.002598000457510352
aF0.0026010004803538322
aF0.0026040005031973124
aF0.0026070005260407925
aF0.0026100005488842726
aF0.0026130005717277527
aF0.002616000594571233
aF0.002619000617414713
aF0.002622000640258193
aF0.002625000663101673
aF0.0026279999874532223
aF0.0026310000102967024
aF0.0026340000331401825
aF0.0026370000559836626
aF0.0026400000788271427
aF0.002643000101670623
aF0.002646000124514103
aF0.002649000147357583
aF0.002652000170201063
aF0.0026550001930445433
aF0.0026580002158880234
aF0.0026610002387315035
aF0.0026640002615749836
aF0.0026670002844184637
aF0.002670000307261944
aF0.002673000330105424
aF0.002676000352948904
aF0.002679000375792384
aF0.0026820003986358643
aF0.0026850004214793444
aF0.0026880004443228245
aF0.0026910004671663046
aF0.0026940004900097847
aF0.002697000512853265
aF0.002700000535696745
aF0.002703000558540225
aF0.002706000581383705
aF0.0027090006042271852
aF0.0027120006270706654
aF0.0027150006499141455
aF0.0027180006727576256
aF0.0027209999971091747
aF0.002724000019952655
aF0.002727000042796135
aF0.002730000065639615
aF0.002733000088483095
aF0.0027360001113265753
aF0.0027390001341700554
aF0.0027420001570135355
aF0.0027450001798570156
aF0.0027480002027004957
aF0.002751000225543976
aF0.002754000248387456
aF0.002757000271230936
aF0.002760000294074416
aF0.0027630003169178963
aF0.0027660003397613764
aF0.0027690003626048565
aF0.0027720003854483366
aF0.0027750004082918167
aF0.002778000431135297
aF0.002781000453978777
aF0.002784000476822257
aF0.002787000499665737
aF0.0027900005225092173
aF0.0027930005453526974
aF0.0027960005681961775
aF0.0027990005910396576
aF0.0028020006138831377
aF0.002805000636726618
aF0.002808000659570098
aF0.002810999983921647
aF0.002814000006765127
aF0.0028170000296086073
aF0.0028200000524520874
aF0.0028230000752955675
aF0.0028260000981390476
aF0.0028290001209825277
aF0.002832000143826008
aF0.002835000166669488
aF0.002838000189512968
aF0.002841000212356448
aF0.0028440002351999283
aF0.0028470002580434084
aF0.0028500002808868885
aF0.0028530003037303686
aF0.0028560003265738487
aF0.002859000349417329
aF0.002862000372260809
aF0.002865000395104289
aF0.002868000417947769
aF0.0028710004407912493
aF0.0028740004636347294
aF0.0028770004864782095
aF0.0028800005093216896
aF0.0028830005321651697
aF0.00288600055500865
aF0.00288900057785213
aF0.00289200060069561
aF0.00289500062353909
aF0.0028980006463825703
aF0.0029010006692260504
aF0.0029039999935775995
aF0.0029070000164210796
aF0.0029100000392645597
aF0.00291300006210804
aF0.00291600008495152
aF0.002919000107795
aF0.00292200013063848
aF0.0029250001534819603
aF0.0029280001763254404
aF0.0029310001991689205
aF0.0029340002220124006
aF0.0029370002448558807
aF0.002940000267699361
aF0.002943000290542841
aF0.002946000313386321
aF0.002949000336229801
aF0.0029520003590732813
aF0.0029550003819167614
aF0.0029580004047602415
aF0.0029610004276037216
aF0.0029640004504472017
aF0.002967000473290682
aF0.002970000496134162
aF0.002973000518977642
aF0.002976000541821122
aF0.0029790005646646023
aF0.0029820005875080824
aF0.0029850006103515625
aF0.0029880006331950426
aF0.0029910006560385227
aF0.002994000678882003
aF0.002997000003233552
aF0.003000000026077032
a(lp5
F0.0
aF-0.2782379388809204
aF-0.40179750323295593
aF-0.6491837501525879
aF-0.839277982711792
aF-0.9401012063026428
aF-1.065737009048462
aF-1.138947606086731
aF-1.3118454217910767
aF-1.4064258337020874
aF-1.4757808446884155
aF-1.5262786149978638
aF-1.6178998947143555
aF-1.6485174894332886
aF-1.8022223711013794
aF-1.6276593208312988
aF-1.6703475713729858
aF-1.6768203973770142
aF-1.6674386262893677
aF-1.6839476823806763
aF-1.6239635944366455
aF-1.6483733654022217
aF-1.6411529779434204
aF-1.6636042594909668
aF-1.670989990234375
aF-1.6751337051391602
aF-1.675018310546875
aF-1.6631840467453003
aF-1.6581099033355713
aF-1.6519684791564941
aF-1.709275484085083
aF-1.6788833141326904
aF-1.6501147747039795
aF-1.671466588973999
aF-1.6517399549484253
aF-1.6898603439331055
aF-1.7184447050094604
aF-1.6883468627929688
aF-1.682543396949768
aF-1.6843132972717285
aF-1.6900544166564941
aF-1.6823272705078125
aF-1.6776013374328613
aF-1.6351052522659302
aF-1.6299771070480347
aF-1.6077303886413574
aF-1.623113751411438
aF-1.6373710632324219
aF-1.6602150201797485
aF-1.6485427618026733
aF-1.6574422121047974
aF-1.644173264503479
aF-1.641095519065857
aF-1.648398756980896
aF-1.626825213432312
aF-1.6335080862045288
aF-1.630902647972107
aF-1.6408348083496094
aF-1.6494979858398438
aF-1.6352158784866333
aF-1.6168007850646973
aF-1.6687203645706177
aF-1.641971230506897
aF-1.6329636573791504
aF-1.6228065490722656
aF-1.6376162767410278
aF-1.6610232591629028
aF-1.6925827264785767
aF-1.6803154945373535
aF-1.6617679595947266
aF-1.6228522062301636
aF-1.649470567703247
aF-1.6495670080184937
aF-1.6670317649841309
aF-1.6182564496994019
aF-1.684578776359558
aF-1.601041555404663
aF-1.5984841585159302
aF-1.6337958574295044
aF-1.6313140392303467
aF-1.6440036296844482
aF-1.6207337379455566
aF-1.6343265771865845
aF-1.615503191947937
aF-1.6487354040145874
aF-1.5976370573043823
aF-1.5835319757461548
aF-1.6464533805847168
aF-1.660383701324463
aF-1.608080267906189
aF-1.637528419494629
aF-1.6228652000427246
aF-1.6498907804489136
aF-1.6310431957244873
aF-1.6155122518539429
aF-1.6336560249328613
aF-1.6106561422348022
aF-1.5924551486968994
aF-1.6174792051315308
aF-1.6447709798812866
aF-1.6126360893249512
aF-1.620181679725647
aF-1.6448758840560913
aF-1.599351406097412
aF-1.6285221576690674
aF-1.6451411247253418
aF-1.602962851524353
aF-1.5929605960845947
aF-1.6369017362594604
aF-1.6206731796264648
aF-1.623274803161621
aF-1.6218414306640625
aF-1.627191424369812
aF-1.6232699155807495
aF-1.5729739665985107
aF-1.6080551147460938
aF-1.612662672996521
aF-1.6034941673278809
aF-1.6081129312515259
aF-1.6104254722595215
aF-1.599410891532898
aF-1.607555866241455
aF-1.593385100364685
aF-1.5548489093780518
aF-1.569783329963684
aF-1.5964264869689941
aF-1.6028072834014893
aF-1.5844664573669434
aF-1.5529078245162964
aF-1.5628317594528198
aF-1.5978800058364868
aF-1.5847930908203125
aF-1.5849344730377197
aF-1.587607979774475
aF-1.5826095342636108
aF-1.5658155679702759
aF-1.575496792793274
aF-1.581007719039917
aF-1.5377731323242188
aF-1.5261000394821167
aF-1.516601324081421
aF-1.5449883937835693
aF-1.5375969409942627
aF-1.5105884075164795
aF-1.5105115175247192
aF-1.5134234428405762
aF-1.4976361989974976
aF-1.528045654296875
aF-1.5095162391662598
aF-1.498559594154358
aF-1.4925726652145386
aF-1.5074502229690552
aF-1.521135926246643
aF-1.5004631280899048
aF-1.5236008167266846
aF-1.4728190898895264
aF-1.4950652122497559
aF-1.503778100013733
aF-1.5106256008148193
aF-1.5027662515640259
aF-1.494438886642456
aF-1.5012558698654175
aF-1.4802353382110596
aF-1.4815173149108887
aF-1.5066653490066528
aF-1.49169921875
aF-1.4826538562774658
aF-1.5035039186477661
aF-1.4992567300796509
aF-1.4882274866104126
aF-1.501927137374878
aF-1.522631287574768
aF-1.492872714996338
aF-1.484886646270752
aF-1.4971247911453247
aF-1.507069706916809
aF-1.488166332244873
aF-1.4964184761047363
aF-1.485713243484497
aF-1.4924651384353638
aF-1.4983792304992676
aF-1.481690764427185
aF-1.5192818641662598
aF-1.4919041395187378
aF-1.4918314218521118
aF-1.4805926084518433
aF-1.4911456108093262
aF-1.4949829578399658
aF-1.501214861869812
aF-1.4992603063583374
aF-1.4824398756027222
aF-1.4785456657409668
aF-1.4845325946807861
aF-1.453687071800232
aF-1.4664262533187866
aF-1.4792217016220093
aF-1.4989988803863525
aF-1.4782993793487549
aF-1.5078223943710327
aF-1.5086169242858887
aF-1.4906243085861206
aF-1.4861513376235962
aF-1.4944236278533936
aF-1.4873430728912354
aF-1.4993679523468018
aF-1.4949778318405151
aF-1.5032165050506592
aF-1.4803990125656128
aF-1.476266622543335
aF-1.4905606508255005
aF-1.4824974536895752
aF-1.5014152526855469
aF-1.5125892162322998
aF-1.4868824481964111
aF-1.491955041885376
aF-1.4799586534500122
aF-1.4889501333236694
aF-1.4851138591766357
aF-1.4767210483551025
aF-1.4985768795013428
aF-1.4786723852157593
aF-1.465668797492981
aF-1.4920167922973633
aF-1.4626569747924805
aF-1.4696379899978638
aF-1.4809813499450684
aF-1.4665809869766235
aF-1.4761911630630493
aF-1.4906600713729858
aF-1.4963241815567017
aF-1.4809812307357788
aF-1.4685492515563965
aF-1.4973111152648926
aF-1.4903041124343872
aF-1.500382661819458
aF-1.4681340456008911
aF-1.478151559829712
aF-1.465726613998413
aF-1.4554996490478516
aF-1.495131254196167
aF-1.4588408470153809
aF-1.479614019393921
aF-1.4768894910812378
aF-1.4846675395965576
aF-1.4808902740478516
aF-1.484727144241333
aF-1.4605094194412231
aF-1.480250358581543
aF-1.4812506437301636
aF-1.4525432586669922
aF-1.4679619073867798
aF-1.4507229328155518
aF-1.46902596950531
aF-1.4613758325576782
aF-1.46908700466156
aF-1.475113868713379
aF-1.4704755544662476
aF-1.4650813341140747
aF-1.511566400527954
aF-1.4813827276229858
aF-1.4690214395523071
aF-1.4691507816314697
aF-1.4751718044281006
aF-1.4347293376922607
aF-1.4725539684295654
aF-1.4840437173843384
aF-1.457664132118225
aF-1.4599695205688477
aF-1.4493991136550903
aF-1.428810477256775
aF-1.4499125480651855
aF-1.4774583578109741
aF-1.4658135175704956
aF-1.4716477394104004
aF-1.4613746404647827
aF-1.475805640220642
aF-1.47931706905365
aF-1.4559704065322876
aF-1.4647388458251953
aF-1.4682676792144775
aF-1.4570034742355347
aF-1.4905864000320435
aF-1.4707919359207153
aF-1.45612370967865
aF-1.4554765224456787
aF-1.4945169687271118
aF-1.4659096002578735
aF-1.4456177949905396
aF-1.4588391780853271
aF-1.4682114124298096
aF-1.4655492305755615
aF-1.4774672985076904
aF-1.4613276720046997
aF-1.471864938735962
aF-1.4397785663604736
aF-1.4706565141677856
aF-1.4633275270462036
aF-1.4740190505981445
aF-1.4546130895614624
aF-1.438767433166504
aF-1.4649943113327026
aF-1.4793133735656738
aF-1.4786745309829712
aF-1.4812182188034058
aF-1.4611420631408691
aF-1.4584197998046875
aF-1.4557149410247803
aF-1.4650763273239136
aF-1.4686487913131714
aF-1.462762713432312
aF-1.45760178565979
aF-1.4632201194763184
aF-1.4724525213241577
aF-1.4771305322647095
aF-1.4428606033325195
aF-1.4831691980361938
aF-1.445332646369934
aF-1.4858564138412476
aF-1.4637690782546997
aF-1.4557254314422607
aF-1.4714199304580688
aF-1.4700192213058472
aF-1.4488276243209839
aF-1.463850975036621
aF-1.4648544788360596
aF-1.4644582271575928
aF-1.457182765007019
aF-1.4792031049728394
aF-1.4547698497772217
aF-1.464759349822998
aF-1.4731117486953735
aF-1.4599181413650513
aF-1.4956421852111816
aF-1.4614113569259644
aF-1.4605624675750732
aF-1.4526432752609253
aF-1.4487175941467285
aF-1.4674201011657715
aF-1.4559794664382935
aF-1.4741891622543335
aF-1.4685771465301514
aF-1.4650020599365234
aF-1.4727903604507446
aF-1.4758532047271729
aF-1.4579763412475586
aF-1.449251413345337
aF-1.4619208574295044
aF-1.4691139459609985
aF-1.4747638702392578
aF-1.458387017250061
aF-1.4702235460281372
aF-1.4591537714004517
aF-1.4575064182281494
aF-1.4661422967910767
aF-1.4675740003585815
aF-1.4556812047958374
aF-1.4675188064575195
aF-1.4549905061721802
aF-1.453216791152954
aF-1.4838554859161377
aF-1.478424310684204
aF-1.4571691751480103
aF-1.4468302726745605
aF-1.4645519256591797
aF-1.4609826803207397
aF-1.4786876440048218
aF-1.4979057312011719
aF-1.4796662330627441
aF-1.4903806447982788
aF-1.4815723896026611
aF-1.453038215637207
aF-1.5627578496932983
aF-1.4629849195480347
aF-1.4523900747299194
aF-1.4693108797073364
aF-1.4590932130813599
aF-1.4592211246490479
aF-1.4551682472229004
aF-1.4607950448989868
aF-1.495754361152649
aF-1.4415404796600342
aF-1.4610912799835205
aF-1.4813332557678223
aF-1.4938448667526245
aF-1.459383249282837
aF-1.4581491947174072
aF-1.4762990474700928
aF-1.4820287227630615
aF-1.4607199430465698
aF-1.4722734689712524
aF-1.4786574840545654
aF-1.4546465873718262
aF-1.4494876861572266
aF-1.4673378467559814
aF-1.469043254852295
aF-1.4870631694793701
aF-1.4542889595031738
aF-1.4871985912322998
aF-1.45648992061615
aF-1.4628715515136719
aF-1.483694314956665
aF-1.4777581691741943
aF-1.4959105253219604
aF-1.4897558689117432
aF-1.4768606424331665
aF-1.4534327983856201
aF-1.450950264930725
aF-1.4763591289520264
aF-1.4817672967910767
aF-1.451846718788147
aF-1.442385196685791
aF-1.454408049583435
aF-1.4698559045791626
aF-1.472416639328003
aF-1.481621265411377
aF-1.46346914768219
aF-1.4903308153152466
aF-1.4809614419937134
aF-1.4561697244644165
aF-1.457091212272644
aF-1.476527214050293
aF-1.473724126815796
aF-1.4448615312576294
aF-1.4675546884536743
aF-1.4760923385620117
aF-1.624305248260498
aF-1.4514516592025757
aF-1.4882949590682983
aF-1.4715496301651
aF-1.4601720571517944
aF-1.456993579864502
aF-1.4389405250549316
aF-1.4698874950408936
aF-1.4538143873214722
aF-1.4710785150527954
aF-1.4828249216079712
aF-1.468441367149353
aF-1.4652254581451416
aF-1.4551763534545898
aF-1.4673646688461304
aF-1.467972993850708
aF-1.4405875205993652
aF-1.4540537595748901
aF-1.4492462873458862
aF-1.4516485929489136
aF-1.4892604351043701
aF-1.4509363174438477
aF-1.4570391178131104
aF-1.4911860227584839
aF-1.4662284851074219
aF-1.455148458480835
aF-1.4728622436523438
aF-1.434205412864685
aF-1.4625990390777588
aF-1.4711315631866455
aF-1.4537789821624756
aF-1.4618743658065796
aF-1.4679538011550903
aF-1.4587671756744385
aF-1.442477822303772
aF-1.4579272270202637
aF-1.4475349187850952
aF-1.4694852828979492
aF-1.4631623029708862
aF-1.5039653778076172
aF-1.483129620552063
aF-1.4485105276107788
aF-1.4642994403839111
aF-1.4474273920059204
aF-1.4536712169647217
aF-1.461553931236267
aF-1.4486083984375
aF-1.4644063711166382
aF-1.456257700920105
aF-1.4691649675369263
aF-1.4505709409713745
aF-1.4482249021530151
aF-1.447298526763916
aF-1.4998189210891724
aF-1.4544118642807007
aF-1.4721341133117676
aF-1.4445114135742188
aF-1.4540619850158691
aF-1.4800547361373901
aF-1.4288250207901
aF-1.454262614250183
aF-1.4840961694717407
aF-1.4711039066314697
aF-1.4552088975906372
aF-1.458492636680603
aF-1.4654481410980225
aF-1.4634121656417847
aF-1.4628236293792725
aF-1.4601141214370728
aF-1.4714192152023315
aF-1.5138309001922607
aF-1.4572216272354126
aF-1.470122218132019
aF-1.4635488986968994
aF-1.4443761110305786
aF-1.4696199893951416
aF-1.4548979997634888
aF-1.4322317838668823
aF-1.4697595834732056
aF-1.4473998546600342
aF-1.4681732654571533
aF-1.4459834098815918
aF-1.4703484773635864
aF-1.4343440532684326
aF-1.4721641540527344
aF-1.4544227123260498
aF-1.4612427949905396
aF-1.4538475275039673
aF-1.4259989261627197
aF-1.4559108018875122
aF-1.4552619457244873
aF-1.3708990812301636
aF-1.4400421380996704
aF-1.4425212144851685
aF-1.4604825973510742
aF-1.460679292678833
aF-1.4651262760162354
aF-1.4894096851348877
aF-1.458061933517456
aF-1.4623517990112305
aF-1.4497841596603394
aF-1.4660733938217163
aF-1.4345060586929321
aF-1.4454230070114136
aF-1.466172218322754
aF-1.4539302587509155
aF-1.4501280784606934
aF-1.4472875595092773
aF-1.457909345626831
aF-1.4354366064071655
aF-1.466073989868164
aF-1.435724139213562
aF-1.4513014554977417
aF-1.4570420980453491
aF-1.4456024169921875
aF-1.4598214626312256
aF-1.434288740158081
aF-1.4618676900863647
aF-1.455062985420227
aF-1.4383443593978882
aF-1.4679086208343506
aF-1.444647192955017
aF-1.455169677734375
aF-1.4380933046340942
aF-1.4425911903381348
aF-1.5021981000900269
aF-1.4396907091140747
aF-1.477566123008728
aF-1.4646204710006714
aF-1.4296258687973022
aF-1.450429916381836
aF-1.451656460762024
aF-1.4358912706375122
aF-1.448731780052185
aF-1.4387692213058472
aF-1.479640007019043
aF-1.4718163013458252
aF-1.428565263748169
aF-1.4492112398147583
aF-1.4478487968444824
aF-1.4584952592849731
aF-1.4664113521575928
aF-1.456417441368103
aF-1.455173373222351
aF-1.4651745557785034
aF-1.4498329162597656
aF-1.4646716117858887
aF-1.4500353336334229
aF-1.4603004455566406
aF-1.4451297521591187
aF-1.4430564641952515
aF-1.4467215538024902
aF-1.453216552734375
aF-1.4540189504623413
aF-1.4432271718978882
aF-1.4643702507019043
aF-1.443539023399353
aF-1.4550127983093262
aF-1.46171236038208
aF-1.4587597846984863
aF-1.4511576890945435
aF-1.4312940835952759
aF-1.4651873111724854
aF-1.4674961566925049
aF-1.4691739082336426
aF-1.4655569791793823
aF-1.4407835006713867
aF-1.4519634246826172
aF-1.450788974761963
aF-1.4630780220031738
aF-1.4576772451400757
aF-1.4646835327148438
aF-1.4430917501449585
aF-1.4422231912612915
aF-1.456256628036499
aF-1.4598191976547241
aF-1.4470858573913574
aF-1.4469561576843262
aF-1.448332667350769
aF-1.456563949584961
aF-1.4429731369018555
aF-1.462187647819519
aF-1.4512397050857544
aF-1.456941843032837
aF-1.42231285572052
aF-1.4521231651306152
aF-1.4543757438659668
aF-1.4802591800689697
aF-1.450576901435852
aF-1.4611449241638184
aF-1.4562333822250366
aF-1.4387764930725098
aF-1.446328043937683
aF-1.478918194770813
aF-1.4589396715164185
aF-1.4529260396957397
aF-1.4610967636108398
aF-1.4473063945770264
aF-1.4658690690994263
aF-1.4568054676055908
aF-1.4557363986968994
aF-1.4341084957122803
aF-1.4411948919296265
aF-1.4490525722503662
aF-1.4228785037994385
aF-1.4499034881591797
aF-1.4574744701385498
aF-1.454555630683899
aF-1.4587818384170532
aF-1.4433783292770386
aF-1.4348355531692505
aF-1.4398020505905151
aF-1.4512970447540283
aF-1.4398794174194336
aF-1.4390692710876465
aF-1.4611271619796753
aF-1.4735145568847656
aF-1.4407902956008911
aF-1.4489612579345703
aF-1.4469627141952515
aF-1.4339464902877808
aF-1.4456676244735718
aF-1.4494099617004395
aF-1.427872657775879
aF-1.4501726627349854
aF-1.441732406616211
aF-1.4149572849273682
aF-1.4368704557418823
aF-1.4488712549209595
aF-1.4455021619796753
aF-1.4454421997070312
aF-1.437573790550232
aF-1.446517825126648
aF-1.4439785480499268
aF-1.4461308717727661
aF-1.4941492080688477
aF-1.3451980352401733
aF-1.4784948825836182
aF-1.459679126739502
aF-1.4750148057937622
aF-1.460648536682129
aF-1.4615542888641357
aF-1.4408546686172485
aF-1.434104561805725
aF-1.476537823677063
aF-1.4572852849960327
aF-1.4697692394256592
aF-1.4733757972717285
aF-1.4194408655166626
aF-1.4518955945968628
aF-1.4561007022857666
aF-1.4697644710540771
aF-1.4199252128601074
aF-1.443938970565796
aF-1.4175305366516113
aF-1.454609751701355
aF-1.4554146528244019
aF-1.4422067403793335
aF-1.4503527879714966
aF-1.4770514965057373
aF-1.4537663459777832
aF-1.4706782102584839
aF-1.453208088874817
aF-1.4192453622817993
aF-1.4580708742141724
aF-1.4507795572280884
aF-1.4541772603988647
aF-1.4327858686447144
aF-1.4565353393554688
aF-1.4310053586959839
aF-1.4563292264938354
aF-1.3995295763015747
aF-1.434836745262146
aF-1.4433890581130981
aF-1.4476687908172607
aF-1.429312825202942
aF-1.4545831680297852
aF-1.4661492109298706
aF-1.4606575965881348
aF-1.454058051109314
aF-1.4627323150634766
aF-1.4563275575637817
aF-1.4290398359298706
aF-1.4658176898956299
aF-1.4568485021591187
aF-1.4702048301696777
aF-1.4458357095718384
aF-1.4386448860168457
aF-1.4422919750213623
aF-1.4520537853240967
aF-1.4543774127960205
aF-1.438459038734436
aF-1.4597448110580444
aF-1.4513071775436401
aF-1.4754881858825684
aF-1.4668642282485962
aF-1.4418127536773682
aF-1.408365249633789
aF-1.4389268159866333
aF-1.433695912361145
aF-1.4400440454483032
aF-1.4468905925750732
aF-1.4389739036560059
aF-1.4412834644317627
aF-1.4510700702667236
aF-1.4180275201797485
aF-1.446434736251831
aF-1.4612984657287598
aF-1.4396610260009766
aF-1.4314874410629272
aF-1.4586058855056763
aF-1.4410340785980225
aF-1.4475454092025757
aF-1.4405546188354492
aF-1.4338021278381348
aF-1.4673433303833008
aF-1.4435250759124756
aF-1.460929036140442
aF-1.47052001953125
aF-1.4470058679580688
aF-1.4527066946029663
aF-1.4481827020645142
aF-1.45896315574646
aF-1.4522850513458252
aF-1.431906819343567
aF-1.4479258060455322
aF-1.4438289403915405
aF-1.4575480222702026
aF-1.4794785976409912
aF-1.456563115119934
aF-1.4540231227874756
aF-1.4631472826004028
aF-1.4671545028686523
aF-1.4599895477294922
aF-1.4321428537368774
aF-1.4647810459136963
aF-1.4625563621520996
aF-1.4651446342468262
aF-1.4471582174301147
aF-1.4629143476486206
aF-1.4498924016952515
aF-1.4729864597320557
aF-1.491127848625183
aF-1.4541889429092407
aF-1.446092963218689
aF-1.4524048566818237
aF-1.4551544189453125
aF-1.4480117559432983
aF-1.4435129165649414
aF-1.4596152305603027
aF-1.4765986204147339
aF-1.464538335800171
aF-1.4519950151443481
aF-1.4384626150131226
aF-1.4506940841674805
aF-1.4487981796264648
aF-1.4503045082092285
aF-1.464136004447937
aF-1.444424033164978
aF-1.481839895248413
aF-1.4606810808181763
aF-1.418829083442688
aF-1.4396324157714844
aF-1.45218825340271
aF-1.451563835144043
aF-1.4415255784988403
aF-1.442325472831726
aF-1.4342975616455078
aF-1.452134132385254
aF-1.4688576459884644
aF-1.448950171470642
aF-1.4570165872573853
aF-1.4376989603042603
aF-1.4583237171173096
aF-1.4557431936264038
aF-1.478996992111206
aF-1.4594461917877197
aF-1.4369838237762451
aF-1.453202486038208
aF-1.4531854391098022
aF-1.4242513179779053
aF-1.4198495149612427
aF-1.435001254081726
aF-1.4407697916030884
aF-1.56326425075531
aF-1.459975004196167
aF-1.4556797742843628
aF-1.4523694515228271
aF-1.4576442241668701
aF-1.4397366046905518
aF-1.4434093236923218
aF-1.4538342952728271
aF-1.4711635112762451
aF-1.4565937519073486
aF-1.4669162034988403
aF-1.4594757556915283
aF-1.4777204990386963
aF-1.4620367288589478
aF-1.4504297971725464
aF-1.4561693668365479
aF-1.4431477785110474
aF-1.4428461790084839
aF-1.4348392486572266
aF-1.4711612462997437
aF-1.4594485759735107
aF-1.4424265623092651
aF-1.4886488914489746
aF-1.437491774559021
aF-1.465762734413147
aF-1.4518197774887085
aF-1.464784026145935
aF-1.4570115804672241
aF-1.457428216934204
aF-1.4338542222976685
aF-1.4680700302124023
aF-1.4564945697784424
aF-1.4633896350860596
aF-1.4271228313446045
aF-1.4507288932800293
aF-1.4564666748046875
aF-1.426495909690857
aF-1.4354453086853027
aF-1.464385747909546
aF-1.437281847000122
aF-1.4610990285873413
aF-1.4471200704574585
aF-1.447878360748291
aF-1.4725369215011597
aF-1.458402395248413
aF-1.4661176204681396
aF-1.4288021326065063
aF-1.4520703554153442
aF-1.4227464199066162
aF-1.4527117013931274
aF-1.4570082426071167
aF-1.445317029953003
aF-1.435593605041504
aF-1.4530991315841675
aF-1.447429895401001
aF-1.4354767799377441
aF-1.4442596435546875
aF-1.4507536888122559
aF-1.4522188901901245
aF-1.43751859664917
aF-1.444901704788208
aF-1.4466253519058228
aF-1.4911246299743652
aF-1.4466552734375
aF-1.4590003490447998
aF-1.4572361707687378
aF-1.449001431465149
aF-1.4641343355178833
aF-1.4469739198684692
aF-1.4557515382766724
aF-1.4443622827529907
aF-1.4601129293441772
aF-1.4729235172271729
aF-1.4708970785140991
aF-1.4614452123641968
aF-1.4621020555496216
aF-1.6017345190048218
aF-1.4832969903945923
aF-1.4826228618621826
aF-1.4947017431259155
aF-1.471008539199829
aF-1.4824758768081665
aF-1.5367345809936523
aF-1.5370079278945923
aF-1.5049134492874146
aF-1.520725965499878
aF-1.5153694152832031
aF-1.498663306236267
aF-1.5073179006576538
aF-1.5221110582351685
aF-1.4953882694244385
aF-1.5082002878189087
aF-1.5008009672164917
aF-1.528287410736084
aF-1.503583550453186
aF-1.5087131261825562
aF-1.5114697217941284
aF-1.5245246887207031
aF-1.5127602815628052
aF-1.5282247066497803
aF-1.5136396884918213
aF-1.52154541015625
aF-1.5256985425949097
aF-1.5196911096572876
aF-1.497044563293457
aF-1.5208048820495605
aF-1.5017445087432861
aF-1.5296415090560913
aF-1.528691291809082
aF-1.546869158744812
aF-1.5358271598815918
aF-1.5331445932388306
aF-1.5272002220153809
aF-1.5400025844573975
aF-1.5275243520736694
aF-1.5309492349624634
aF-1.5127081871032715
aF-1.5452300310134888
aF-1.5296367406845093
aF-1.5464211702346802
aF-1.5261625051498413
aF-1.5353814363479614
aF-1.5424126386642456
aF-1.5523624420166016
aF-1.5162897109985352
aF-1.5408380031585693
aF-1.534576416015625
aF-1.5324928760528564
aF-1.5405415296554565
aF-1.5166975259780884
aF-1.5384182929992676
aF-1.5620920658111572
aF-1.5394041538238525
aF-1.6244275569915771
aF-1.53920316696167
aF-1.5279138088226318
aF-1.547966718673706
aF-1.5256767272949219
aF-1.5392212867736816
aF-1.5377470254898071
aF-1.5591243505477905
aF-1.5230768918991089
aF-1.5488017797470093
aF-1.517671823501587
aF-1.5415997505187988
aF-1.5260807275772095
aF-1.5140880346298218
aF-1.5308085680007935
aF-1.5366288423538208
aF-1.4967491626739502
aF-1.5054761171340942
aF-1.530914306640625
aF-1.4880447387695312
aF-1.5254197120666504
aF-1.5266673564910889
aF-1.474810004234314
aF-1.5399880409240723
aF-1.5036150217056274
aF-1.5224401950836182
aF-1.525071382522583
aF-1.5162049531936646
aF-1.5339299440383911
aF-1.518609881401062
aF-1.532262921333313
aF-1.5140471458435059
aF-1.5186693668365479
aF-1.5236529111862183
aF-1.5303386449813843
aF-1.5151011943817139
aF-1.5315414667129517
aF-1.5321288108825684
aF-1.5171301364898682
aF-1.5192605257034302
aF-1.53165864944458
aF-1.5243661403656006
aF-1.4887709617614746
aF-1.5110207796096802
aF-1.5186266899108887
aF-1.527155876159668
aF-1.5070878267288208
aF-1.5317716598510742
aF-1.4954743385314941
aF-1.5142247676849365
aF-1.5167869329452515
aF-1.5115207433700562
aF-1.516952395439148
aF-1.501569390296936
aF-1.5105705261230469
aF-1.5363012552261353
aF-1.5206743478775024
aF-1.5250108242034912
aF-1.4956624507904053
atp6
a((lp7
F0.0
aF3.00033320854709e-06
aF6.00043040321907e-06
aF9.000018508231733e-06
aF1.2000051356153563e-05
aF1.5000560779299121e-05
aF1.8000620912062004e-05
aF2.1000527340220287e-05
aF2.400006997049786e-05
aF2.700062577787321e-05
aF3.0000537662999704e-05
aF3.3000320399878547e-05
aF3.6000419640913606e-05
aF3.900035881088115e-05
aF4.200029434286989e-05
aF4.500040449784137e-05
aF4.80001290270593e-05
aF5.100041744299233e-05
aF5.400009831646457e-05
aF5.700061228708364e-05
aF6.0000529629178345e-05
aF6.300005770754069e-05
aF6.600045162485912e-05
aF6.900018343003467e-05
aF7.200055551948026e-05
aF7.50002873246558e-05
aF7.800001912983134e-05
aF8.100039121927693e-05
aF8.400012302445248e-05
aF8.700049511389807e-05
aF9.000022691907361e-05
aF9.300059173256159e-05
aF9.600027988199145e-05
aF9.900060103973374e-05
aF0.00010200040560448542
aF0.00010500004282221198
aF0.0001080003276001662
aF0.00011100005940534174
aF0.00011400043149478734
aF0.00011700016329996288
aF0.00012000053538940847
aF0.000123000267194584
aF0.00012599999899975955
aF0.00012900037108920515
aF0.0001320001028943807
aF0.00013500047498382628
aF0.00013800020678900182
aF0.0001410005788784474
aF0.00014400031068362296
aF0.0001470000424887985
aF0.0001500004145782441
aF0.00015300014638341963
aF0.00015600051847286522
aF0.00015900025027804077
aF0.00016200062236748636
aF0.0001650003541726619
aF0.00016800008597783744
aF0.00017100045806728303
aF0.00017400018987245858
aF0.00017700056196190417
aF0.0001800002937670797
aF0.00018300002557225525
aF0.00018600039766170084
aF0.0001890001294668764
aF0.00019200050155632198
aF0.00019500023336149752
aF0.0001980006054509431
aF0.00020100033725611866
aF0.0002040000690612942
aF0.0002070004411507398
aF0.00021000017295591533
aF0.00021300054504536092
aF0.00021600027685053647
aF0.000219000008655712
aF0.0002220003807451576
aF0.00022500011255033314
aF0.00022800048463977873
aF0.00023100021644495428
aF0.00023400058853439987
aF0.0002370003203395754
aF0.00024000005214475095
aF0.00024300042423419654
aF0.0002460001560393721
aF0.0002490005281288177
aF0.0002520002599339932
aF0.0002550006320234388
aF0.00025800036382861435
aF0.0002610000956337899
aF0.0002640004677232355
aF0.00026700019952841103
aF0.0002700005716178566
aF0.00027300030342303216
aF0.0002760000352282077
aF0.0002790004073176533
aF0.00028200013912282884
aF0.00028500051121227443
aF0.00028800024301745
aF0.00029100061510689557
aF0.0002940003469120711
aF0.00029700007871724665
aF0.00030000045080669224
aF0.0003030001826118678
aF0.0003060005547013134
aF0.0003090002865064889
aF0.00031200001831166446
aF0.00031500039040111005
aF0.0003180001222062856
aF0.0003210004942957312
aF0.00032400022610090673
aF0.0003270005981903523
aF0.00033000032999552786
aF0.0003330000618007034
aF0.000336000433890149
aF0.00033900016569532454
aF0.00034200053778477013
aF0.0003450002695899457
aF0.0003480000013951212
aF0.0003510003734845668
aF0.00035400010528974235
aF0.00035700047737918794
aF0.0003600002091843635
aF0.0003630005812738091
aF0.0003660003130789846
aF0.00036900004488416016
aF0.00037200041697360575
aF0.0003750001487787813
aF0.0003780005208682269
aF0.00038100025267340243
aF0.000384000624762848
aF0.00038700035656802356
aF0.0003900000883731991
aF0.0003930004604626447
aF0.00039600019226782024
aF0.00039900056435726583
aF0.00040200029616244137
aF0.0004050000279676169
aF0.0004080004000570625
aF0.00041100013186223805
aF0.00041400050395168364
aF0.0004170002357568592
aF0.0004200006078463048
aF0.0004230003396514803
aF0.00042600007145665586
aF0.00042900044354610145
aF0.000432000175351277
aF0.0004350005474407226
aF0.00043800027924589813
aF0.00044100001105107367
aF0.00044400038314051926
aF0.0004470001149456948
aF0.0004500004870351404
aF0.00045300021884031594
aF0.00045600059092976153
aF0.00045900032273493707
aF0.0004620000545401126
aF0.0004650004266295582
aF0.00046800015843473375
aF0.00047100053052417934
aF0.0004740002623293549
aF0.0004770006344188005
aF0.000480000366223976
aF0.00048300009802915156
aF0.00048600047011859715
aF0.0004890002310276031
aF0.0004920006031170487
aF0.0004950003349222243
aF0.0004980000667273998
aF0.0005010004388168454
aF0.000504000170622021
aF0.0005070005427114666
aF0.0005100002745166421
aF0.0005130000063218176
aF0.0005160003784112632
aF0.0005190001102164388
aF0.0005220004823058844
aF0.0005250002141110599
aF0.0005280005862005055
aF0.000531000318005681
aF0.0005340000498108566
aF0.0005370004219003022
aF0.0005400001537054777
aF0.0005430005257949233
aF0.0005460002576000988
aF0.0005490006296895444
aF0.00055200036149472
aF0.0005550000932998955
aF0.0005580004653893411
aF0.0005610001971945167
aF0.0005640005692839622
aF0.0005670003010891378
aF0.0005700000328943133
aF0.0005730004049837589
aF0.0005760001367889345
aF0.0005790005088783801
aF0.0005820002406835556
aF0.0005850006127730012
aF0.0005880003445781767
aF0.0005910000763833523
aF0.0005940004484727979
aF0.0005970001802779734
aF0.000600000552367419
aF0.0006030002841725945
aF0.0006060000159777701
aF0.0006090003880672157
aF0.0006120001198723912
aF0.0006150004919618368
aF0.0006180002237670124
aF0.000621000595856458
aF0.0006240003276616335
aF0.000627000059466809
aF0.0006300004315562546
aF0.0006330001633614302
aF0.0006360005354508758
aF0.0006390002672560513
aF0.0006419999990612268
aF0.0006450003711506724
aF0.000648000102955848
aF0.0006510004750452936
aF0.0006540002068504691
aF0.0006570005789399147
aF0.0006600003107450902
aF0.0006630000425502658
aF0.0006660004146397114
aF0.0006690001464448869
aF0.0006720005185343325
aF0.0006750002503395081
aF0.0006780006224289536
aF0.0006810003542341292
aF0.0006840000860393047
aF0.0006870004581287503
aF0.0006900001899339259
aF0.0006930005620233715
aF0.000696000293828547
aF0.0006990000256337225
aF0.0007020003977231681
aF0.0007050001295283437
aF0.0007080005016177893
aF0.0007110002334229648
aF0.0007140006055124104
aF0.0007170003373175859
aF0.0007200000691227615
aF0.0007230004412122071
aF0.0007260001730173826
aF0.0007290005451068282
aF0.0007320002769120038
aF0.0007350000087171793
aF0.0007380003808066249
aF0.0007410001126118004
aF0.000744000484701246
aF0.0007470002165064216
aF0.0007500005885958672
aF0.0007530003204010427
aF0.0007560000522062182
aF0.0007590004242956638
aF0.0007620001561008394
aF0.000765000528190285
aF0.0007680002599954605
aF0.0007710006320849061
aF0.0007740003638900816
aF0.0007770000956952572
aF0.0007800004677847028
aF0.0007830001995898783
aF0.0007860005716793239
aF0.0007890003034844995
aF0.000792000035289675
aF0.0007950004073791206
aF0.0007980001391842961
aF0.0008010005112737417
aF0.0008040002430789173
aF0.0008070006151683629
aF0.0008100003469735384
aF0.0008130000787787139
aF0.0008160004508681595
aF0.0008190001826733351
aF0.0008220005547627807
aF0.0008250002865679562
aF0.0008280000183731318
aF0.0008310003904625773
aF0.0008340001222677529
aF0.0008370004943571985
aF0.000840000226162374
aF0.0008430005982518196
aF0.0008460003300569952
aF0.0008490000618621707
aF0.0008520004339516163
aF0.0008550001657567918
aF0.0008580005378462374
aF0.000861000269651413
aF0.0008640006417408586
aF0.0008670003735460341
aF0.0008700001053512096
aF0.0008730004774406552
aF0.0008760002092458308
aF0.0008790005813352764
aF0.0008820003131404519
aF0.0008850000449456275
aF0.000888000417035073
aF0.0008910001488402486
aF0.0008940005209296942
aF0.0008970002527348697
aF0.0009000006248243153
aF0.0009030003566294909
aF0.0009060000884346664
aF0.000909000460524112
aF0.0009120001923292875
aF0.0009150005644187331
aF0.0009180002962239087
aF0.0009210000280290842
aF0.0009240004001185298
aF0.0009270001319237053
aF0.0009300005040131509
aF0.0009330002358183265
aF0.0009360006079077721
aF0.0009390003397129476
aF0.0009420000715181231
aF0.0009450004436075687
aF0.0009480001754127443
aF0.0009510005475021899
aF0.0009540002793073654
aF0.000957000011112541
aF0.0009600003832019866
aF0.0009630001150071621
aF0.0009660004870966077
aF0.0009690002189017832
aF0.0009720005909912288
aF0.0009750003227964044
aF0.0009780001128092408
aF0.000981000135652721
aF0.000984000158496201
aF0.0009870001813396811
aF0.0009900002041831613
aF0.0009930002270266414
aF0.0009960002498701215
aF0.0009990002727136016
aF0.0010020002955570817
aF0.0010050003184005618
aF0.001008000341244042
aF0.001011000364087522
aF0.0010140003869310021
aF0.0010170004097744823
aF0.0010200004326179624
aF0.0010230004554614425
aF0.0010260004783049226
aF0.0010290005011484027
aF0.0010320005239918828
aF0.001035000546835363
aF0.001038000569678843
aF0.0010410005925223231
aF0.0010440006153658032
aF0.0010470006382092834
aF0.0010500006610527635
aF0.0010529999854043126
aF0.0010560000082477927
aF0.0010590000310912728
aF0.001062000053934753
aF0.001065000076778233
aF0.0010680000996217132
aF0.0010710001224651933
aF0.0010740001453086734
aF0.0010770001681521535
aF0.0010800001909956336
aF0.0010830002138391137
aF0.0010860002366825938
aF0.001089000259526074
aF0.001092000282369554
aF0.0010950003052130342
aF0.0010980003280565143
aF0.0011010003508999944
aF0.0011040003737434745
aF0.0011070003965869546
aF0.0011100004194304347
aF0.0011130004422739148
aF0.001116000465117395
aF0.001119000487960875
aF0.0011220005108043551
aF0.0011250005336478353
aF0.0011280005564913154
aF0.0011310005793347955
aF0.0011340006021782756
aF0.0011370006250217557
aF0.0011400006478652358
aF0.001143000670708716
aF0.001145999995060265
aF0.0011490000179037452
aF0.0011520000407472253
aF0.0011550000635907054
aF0.0011580000864341855
aF0.0011610001092776656
aF0.0011640001321211457
aF0.0011670001549646258
aF0.001170000177808106
aF0.001173000200651586
aF0.0011760002234950662
aF0.0011790002463385463
aF0.0011820002691820264
aF0.0011850002920255065
aF0.0011880003148689866
aF0.0011910003377124667
aF0.0011940003605559468
aF0.001197000383399427
aF0.001200000406242907
aF0.0012030004290863872
aF0.0012060004519298673
aF0.0012090004747733474
aF0.0012120004976168275
aF0.0012150005204603076
aF0.0012180005433037877
aF0.0012210005661472678
aF0.001224000588990748
aF0.001227000611834228
aF0.0012300006346777081
aF0.0012330006575211883
aF0.0012360006803646684
aF0.0012390000047162175
aF0.0012420000275596976
aF0.0012450000504031777
aF0.0012480000732466578
aF0.001251000096090138
aF0.001254000118933618
aF0.0012570001417770982
aF0.0012600001646205783
aF0.0012630001874640584
aF0.0012660002103075385
aF0.0012690002331510186
aF0.0012720002559944987
aF0.0012750002788379788
aF0.001278000301681459
aF0.001281000324524939
aF0.0012840003473684192
aF0.0012870003702118993
aF0.0012900003930553794
aF0.0012930004158988595
aF0.0012960004387423396
aF0.0012990004615858197
aF0.0013020004844292998
aF0.00130500050727278
aF0.00130800053011626
aF0.0013110005529597402
aF0.0013140005758032203
aF0.0013170005986467004
aF0.0013200006214901805
aF0.0013230006443336606
aF0.0013260006671771407
aF0.0013289999915286899
aF0.00133200001437217
aF0.00133500003721565
aF0.0013380000600591302
aF0.0013410000829026103
aF0.0013440001057460904
aF0.0013470001285895705
aF0.0013500001514330506
aF0.0013530001742765307
aF0.0013560001971200109
aF0.001359000219963491
aF0.001362000242806971
aF0.0013650002656504512
aF0.0013680002884939313
aF0.0013710003113374114
aF0.0013740003341808915
aF0.0013770003570243716
aF0.0013800003798678517
aF0.0013830004027113318
aF0.001386000425554812
aF0.001389000448398292
aF0.0013920004712417722
aF0.0013950004940852523
aF0.0013980005169287324
aF0.0014010005397722125
aF0.0014040005626156926
aF0.0014070005854591727
aF0.0014100006083026528
aF0.001413000631146133
aF0.001416000653989613
aF0.0014190006768330932
aF0.0014220000011846423
aF0.0014250000240281224
aF0.0014280000468716025
aF0.0014310000697150826
aF0.0014340000925585628
aF0.0014370001154020429
aF0.001440000138245523
aF0.001443000161089003
aF0.0014460001839324832
aF0.0014490002067759633
aF0.0014520002296194434
aF0.0014550002524629235
aF0.0014580002753064036
aF0.0014610002981498837
aF0.0014640003209933639
aF0.001467000343836844
aF0.001470000366680324
aF0.0014730003895238042
aF0.0014760004123672843
aF0.0014790004352107644
aF0.0014820004580542445
aF0.0014850004808977246
aF0.0014880005037412047
aF0.0014910005265846848
aF0.001494000549428165
aF0.001497000572271645
aF0.0015000005951151252
aF0.0015030006179586053
aF0.0015060006408020854
aF0.0015090006636455655
aF0.0015120006864890456
aF0.0015150000108405948
aF0.0015180000336840749
aF0.001521000056527555
aF0.001524000079371035
aF0.0015270001022145152
aF0.0015300001250579953
aF0.0015330001479014754
aF0.0015360001707449555
aF0.0015390001935884356
aF0.0015420002164319158
aF0.0015450002392753959
aF0.001548000262118876
aF0.001551000284962356
aF0.0015540003078058362
aF0.0015570003306493163
aF0.0015600003534927964
aF0.0015630003763362765
aF0.0015660003991797566
aF0.0015690004220232368
aF0.0015720004448667169
aF0.001575000467710197
aF0.001578000490553677
aF0.0015810005133971572
aF0.0015840005362406373
aF0.0015870005590841174
aF0.0015900005819275975
aF0.0015930006047710776
aF0.0015960006276145577
aF0.0015990006504580379
aF0.001602000673301518
aF0.001605000696144998
aF0.0016080000204965472
aF0.0016110000433400273
aF0.0016140000661835074
aF0.0016170000890269876
aF0.0016200001118704677
aF0.0016230001347139478
aF0.0016260001575574279
aF0.001629000180400908
aF0.001632000203244388
aF0.0016350002260878682
aF0.0016380002489313483
aF0.0016410002717748284
aF0.0016440002946183085
aF0.0016470003174617887
aF0.0016500003403052688
aF0.0016530003631487489
aF0.001656000385992229
aF0.001659000408835709
aF0.0016620004316791892
aF0.0016650004545226693
aF0.0016680004773661494
aF0.0016710005002096295
aF0.0016740005230531096
aF0.0016770005458965898
aF0.0016800005687400699
aF0.00168300059158355
aF0.00168600061442703
aF0.0016890006372705102
aF0.0016920006601139903
aF0.0016950006829574704
aF0.0016980000073090196
aF0.0017010000301524997
aF0.0017040000529959798
aF0.00170700007583946
aF0.00171000009868294
aF0.0017130001215264201
aF0.0017160001443699002
aF0.0017190001672133803
aF0.0017220001900568604
aF0.0017250002129003406
aF0.0017280002357438207
aF0.0017310002585873008
aF0.0017340002814307809
aF0.001737000304274261
aF0.001740000327117741
aF0.0017430003499612212
aF0.0017460003728047013
aF0.0017490003956481814
aF0.0017520004184916615
aF0.0017550004413351417
aF0.0017580004641786218
aF0.0017610004870221019
aF0.001764000509865582
aF0.001767000532709062
aF0.0017700005555525422
aF0.0017730005783960223
aF0.0017760006012395024
aF0.0017790006240829825
aF0.0017820006469264627
aF0.0017850006697699428
aF0.0017880006926134229
aF0.001791000016964972
aF0.0017940000398084521
aF0.0017970000626519322
aF0.0018000000854954123
aF0.0018030001083388925
aF0.0018060001311823726
aF0.0018090001540258527
aF0.0018120001768693328
aF0.001815000199712813
aF0.001818000222556293
aF0.0018210002453997731
aF0.0018240002682432532
aF0.0018270002910867333
aF0.0018300003139302135
aF0.0018330003367736936
aF0.0018360003596171737
aF0.0018390003824606538
aF0.001842000405304134
aF0.001845000428147614
aF0.0018480004509910941
aF0.0018510004738345742
aF0.0018540004966780543
aF0.0018570005195215344
aF0.0018600005423650146
aF0.0018630005652084947
aF0.0018660005880519748
aF0.0018690006108954549
aF0.001872000633738935
aF0.001875000656582415
aF0.0018780006794258952
aF0.0018810007022693753
aF0.0018840000266209245
aF0.0018870000494644046
aF0.0018900000723078847
aF0.0018930000951513648
aF0.001896000117994845
aF0.001899000140838325
aF0.0019020001636818051
aF0.0019050001865252852
aF0.0019080002093687654
aF0.0019110002322122455
aF0.0019140002550557256
aF0.0019170002778992057
aF0.0019200003007426858
aF0.001923000323586166
aF0.001926000346429646
aF0.0019290003692731261
aF0.0019320003921166062
aF0.0019350004149600863
aF0.0019380004378035665
aF0.0019410004606470466
aF0.0019440004834905267
aF0.0019470005063340068
aF0.001950000529177487
aF0.001953000552020967
aF0.0019560004584491253
aF0.0019590004812926054
aF0.0019620005041360855
aF0.0019650005269795656
aF0.0019680005498230457
aF0.001971000572666526
aF0.001974000595510006
aF0.001977000618353486
aF0.001980000641196966
aF0.0019829999655485153
aF0.0019859999883919954
aF0.0019890000112354755
aF0.0019920000340789557
aF0.0019950000569224358
aF0.001998000079765916
aF0.002001000102609396
aF0.002004000125452876
aF0.002007000148296356
aF0.0020100001711398363
aF0.0020130001939833164
aF0.0020160002168267965
aF0.0020190002396702766
aF0.0020220002625137568
aF0.002025000285357237
aF0.002028000308200717
aF0.002031000331044197
aF0.002034000353887677
aF0.0020370003767311573
aF0.0020400003995746374
aF0.0020430004224181175
aF0.0020460004452615976
aF0.0020490004681050777
aF0.002052000490948558
aF0.002055000513792038
aF0.002058000536635518
aF0.002061000559478998
aF0.0020640005823224783
aF0.0020670006051659584
aF0.0020700006280094385
aF0.0020730006508529186
aF0.0020759999752044678
aF0.002078999998047948
aF0.002082000020891428
aF0.002085000043734908
aF0.002088000066578388
aF0.0020910000894218683
aF0.0020940001122653484
aF0.0020970001351088285
aF0.0021000001579523087
aF0.0021030001807957888
aF0.002106000203639269
aF0.002109000226482749
aF0.002112000249326229
aF0.002115000272169709
aF0.0021180002950131893
aF0.0021210003178566694
aF0.0021240003407001495
aF0.0021270003635436296
aF0.0021300003863871098
aF0.00213300040923059
aF0.00213600043207407
aF0.00213900045491755
aF0.00214200047776103
aF0.0021450005006045103
aF0.0021480005234479904
aF0.0021510005462914705
aF0.0021540005691349506
aF0.0021570005919784307
aF0.002160000614821911
aF0.002163000637665391
aF0.00216599996201694
aF0.0021689999848604202
aF0.0021720000077039003
aF0.0021750000305473804
aF0.0021780000533908606
aF0.0021810000762343407
aF0.0021840000990778208
aF0.002187000121921301
aF0.002190000144764781
aF0.002193000167608261
aF0.0021960001904517412
aF0.0021990002132952213
aF0.0022020002361387014
aF0.0022050002589821815
aF0.0022080002818256617
aF0.0022110003046691418
aF0.002214000327512622
aF0.002217000350356102
aF0.002220000373199582
aF0.002223000396043062
aF0.0022260004188865423
aF0.0022290004417300224
aF0.0022320004645735025
aF0.0022350004874169827
aF0.0022380005102604628
aF0.002241000533103943
aF0.002244000555947423
aF0.002247000578790903
aF0.002250000601634383
aF0.0022530006244778633
aF0.0022560006473213434
aF0.0022589999716728926
aF0.0022619999945163727
aF0.002265000017359853
aF0.002268000040203333
aF0.002271000063046813
aF0.002274000085890293
aF0.0022770001087337732
aF0.0022800001315772533
aF0.0022830001544207335
aF0.0022860001772642136
aF0.0022890002001076937
aF0.0022920002229511738
aF0.002295000245794654
aF0.002298000268638134
aF0.002301000291481614
aF0.0023040003143250942
aF0.0023070003371685743
aF0.0023100003600120544
aF0.0023130003828555346
aF0.0023160004056990147
aF0.0023190004285424948
aF0.002322000451385975
aF0.002325000474229455
aF0.002328000497072935
aF0.002331000519916415
aF0.0023340005427598953
aF0.0023370005656033754
aF0.0023400005884468555
aF0.0023430006112903357
aF0.0023460006341338158
aF0.002349000656977296
aF0.002351999981328845
aF0.002355000004172325
aF0.0023580000270158052
aF0.0023610000498592854
aF0.0023640000727027655
aF0.0023670000955462456
aF0.0023700001183897257
aF0.002373000141233206
aF0.002376000164076686
aF0.002379000186920166
aF0.002382000209763646
aF0.0023850002326071262
aF0.0023880002554506063
aF0.0023910002782940865
aF0.0023940003011375666
aF0.0023970003239810467
aF0.002400000346824527
aF0.002403000369668007
aF0.002406000392511487
aF0.002409000415354967
aF0.0024120004381984472
aF0.0024150004610419273
aF0.0024180004838854074
aF0.0024210005067288876
aF0.0024240005295723677
aF0.0024270005524158478
aF0.002430000575259328
aF0.002433000598102808
aF0.002436000620946288
aF0.0024390006437897682
aF0.0024420006666332483
aF0.0024449999909847975
aF0.0024480000138282776
aF0.0024510000366717577
aF0.002454000059515238
aF0.002457000082358718
aF0.002460000105202198
aF0.002463000128045678
aF0.0024660001508891582
aF0.0024690001737326384
aF0.0024720001965761185
aF0.0024750002194195986
aF0.0024780002422630787
aF0.002481000265106559
aF0.002484000287950039
aF0.002487000310793519
aF0.002490000333636999
aF0.0024930003564804792
aF0.0024960003793239594
aF0.0024990004021674395
aF0.0025020004250109196
aF0.0025050004478543997
aF0.00250800047069788
aF0.00251100049354136
aF0.00251400051638484
aF0.00251700053922832
aF0.0025200005620718002
aF0.0025230005849152803
aF0.0025260006077587605
aF0.0025290006306022406
aF0.0025320006534457207
aF0.00253499997779727
aF0.00253800000064075
aF0.00254100002348423
aF0.00254400004632771
aF0.0025470000691711903
aF0.0025500000920146704
aF0.0025530001148581505
aF0.0025560001377016306
aF0.0025590001605451107
aF0.002562000183388591
aF0.002565000206232071
aF0.002568000229075551
aF0.002571000251919031
aF0.0025740002747625113
aF0.0025770002976059914
aF0.0025800003204494715
aF0.0025830003432929516
aF0.0025860003661364317
aF0.002589000388979912
aF0.002592000411823392
aF0.002595000434666872
aF0.002598000457510352
aF0.0026010004803538322
aF0.0026040005031973124
aF0.0026070005260407925
aF0.0026100005488842726
aF0.0026130005717277527
aF0.002616000594571233
aF0.002619000617414713
aF0.002622000640258193
aF0.002625000663101673
aF0.0026279999874532223
aF0.0026310000102967024
aF0.0026340000331401825
aF0.0026370000559836626
aF0.0026400000788271427
aF0.002643000101670623
aF0.002646000124514103
aF0.002649000147357583
aF0.002652000170201063
aF0.0026550001930445433
aF0.0026580002158880234
aF0.0026610002387315035
aF0.0026640002615749836
aF0.0026670002844184637
aF0.002670000307261944
aF0.002673000330105424
aF0.002676000352948904
aF0.002679000375792384
aF0.0026820003986358643
aF0.0026850004214793444
aF0.0026880004443228245
aF0.0026910004671663046
aF0.0026940004900097847
aF0.002697000512853265
aF0.002700000535696745
aF0.002703000558540225
aF0.002706000581383705
aF0.0027090006042271852
aF0.0027120006270706654
aF0.0027150006499141455
aF0.0027180006727576256
aF0.0027209999971091747
aF0.002724000019952655
aF0.002727000042796135
aF0.002730000065639615
aF0.002733000088483095
aF0.0027360001113265753
aF0.0027390001341700554
aF0.0027420001570135355
aF0.0027450001798570156
aF0.0027480002027004957
aF0.002751000225543976
aF0.002754000248387456
aF0.002757000271230936
aF0.002760000294074416
aF0.0027630003169178963
aF0.0027660003397613764
aF0.0027690003626048565
aF0.0027720003854483366
aF0.0027750004082918167
aF0.002778000431135297
aF0.002781000453978777
aF0.002784000476822257
aF0.002787000499665737
aF0.0027900005225092173
aF0.0027930005453526974
aF0.0027960005681961775
aF0.0027990005910396576
aF0.0028020006138831377
aF0.002805000636726618
aF0.002808000659570098
aF0.002810999983921647
aF0.002814000006765127
aF0.0028170000296086073
aF0.0028200000524520874
aF0.0028230000752955675
aF0.0028260000981390476
aF0.0028290001209825277
aF0.002832000143826008
aF0.002835000166669488
aF0.002838000189512968
aF0.002841000212356448
aF0.0028440002351999283
aF0.0028470002580434084
aF0.0028500002808868885
aF0.0028530003037303686
aF0.0028560003265738487
aF0.002859000349417329
aF0.002862000372260809
aF0.002865000395104289
aF0.002868000417947769
aF0.0028710004407912493
aF0.0028740004636347294
aF0.0028770004864782095
aF0.0028800005093216896
aF0.0028830005321651697
aF0.00288600055500865
aF0.00288900057785213
aF0.00289200060069561
aF0.00289500062353909
aF0.0028980006463825703
aF0.0029010006692260504
aF0.0029039999935775995
aF0.0029070000164210796
aF0.0029100000392645597
aF0.00291300006210804
aF0.00291600008495152
aF0.002919000107795
aF0.00292200013063848
aF0.0029250001534819603
aF0.0029280001763254404
aF0.0029310001991689205
aF0.0029340002220124006
aF0.0029370002448558807
aF0.002940000267699361
aF0.002943000290542841
aF0.002946000313386321
aF0.002949000336229801
aF0.0029520003590732813
aF0.0029550003819167614
aF0.0029580004047602415
aF0.0029610004276037216
aF0.0029640004504472017
aF0.002967000473290682
aF0.002970000496134162
aF0.002973000518977642
aF0.002976000541821122
aF0.0029790005646646023
aF0.0029820005875080824
aF0.0029850006103515625
aF0.0029880006331950426
aF0.0029910006560385227
aF0.002994000678882003
aF0.002997000003233552
aF0.003000000026077032
a(lp8
F0.0
aF-0.00563536724075675
aF-0.007026577368378639
aF-0.006276770960539579
aF-0.007542728446424007
aF-0.0029949829913675785
aF-0.018181972205638885
aF-0.004223992582410574
aF-0.008582029491662979
aF-0.015479978173971176
aF-0.030155358836054802
aF-0.0235704705119133
aF-0.013379083015024662
aF-0.016413545235991478
aF-0.01289652194827795
aF0.0011939085088670254
aF0.01045594085007906
aF0.002902244683355093
aF-0.004685546271502972
aF0.005169710610061884
aF-0.004283489193767309
aF-0.004313628654927015
aF-0.004352246876806021
aF0.0007171102915890515
aF0.0055884700268507
aF0.009344036690890789
aF0.01212978083640337
aF0.015629049390554428
aF0.006492724176496267
aF0.0059236385859549046
aF-0.0004170468309894204
aF-0.00515693100169301
aF-0.012561507523059845
aF-0.002217087661847472
aF0.01709921471774578
aF0.02664932794868946
aF0.022770503535866737
aF0.026224883273243904
aF0.02182813175022602
aF0.01371798850595951
aF0.017606982961297035
aF0.01863824389874935
aF0.01895100809633732
aF0.017619362100958824
aF0.030414355918765068
aF0.02555287815630436
aF0.028542643412947655
aF0.02927965484559536
aF0.032621368765830994
aF0.025708364322781563
aF0.030893607065081596
aF0.030159125104546547
aF0.03378237038850784
aF0.036794085055589676
aF0.03591357171535492
aF0.03525542840361595
aF0.03344617784023285
aF0.0344042144715786
aF0.03413279727101326
aF0.032103389501571655
aF0.03056614100933075
aF0.032428860664367676
aF0.029422510415315628
aF0.028389131650328636
aF0.028423143550753593
aF0.023153895512223244
aF0.025459621101617813
aF0.023689398542046547
aF0.02071688137948513
aF0.02378258667886257
aF0.02734929881989956
aF0.024576794356107712
aF0.028625216335058212
aF0.031140444800257683
aF0.031030910089612007
aF0.03025778941810131
aF0.033472996205091476
aF0.037790410220623016
aF0.027064064517617226
aF0.031605906784534454
aF0.029835186898708344
aF0.027204500511288643
aF0.02576369047164917
aF0.023783491924405098
aF0.023828737437725067
aF0.02304333634674549
aF0.01839892379939556
aF0.012377128936350346
aF0.02023404650390148
aF0.01278994232416153
aF0.01274789497256279
aF0.016414953395724297
aF0.009797802194952965
aF0.008841070346534252
aF0.009443606249988079
aF0.005664304830133915
aF0.0096032889559865
aF0.00788168329745531
aF0.006006687413901091
aF0.008355921134352684
aF0.003844659775495529
aF0.006787918973714113
aF0.005251981317996979
aF0.0015269636642187834
aF0.006174219772219658
aF0.004458781331777573
aF0.011617935262620449
aF0.006726232822984457
aF0.008138084784150124
aF0.013216373510658741
aF0.004669934511184692
aF0.009708725847303867
aF0.006496676243841648
aF0.004053984768688679
aF0.0039955549873411655
aF0.006935494020581245
aF0.005411627236753702
aF0.001959850313141942
aF0.006204918026924133
aF0.0079521294683218
aF0.0025194978807121515
aF0.006753688678145409
aF0.010517144575715065
aF0.010641398839652538
aF0.00926030334085226
aF0.01399040687829256
aF0.010818911716341972
aF0.012784612365067005
aF0.011559166945517063
aF0.015090386383235455
aF0.014713055454194546
aF0.013093228451907635
aF0.013889843598008156
aF0.017384052276611328
aF0.019884858280420303
aF0.018538180738687515
aF0.023199984803795815
aF0.021885909140110016
aF0.020901190117001534
aF0.014380144886672497
aF0.016025220975279808
aF0.012038753367960453
aF0.010857734829187393
aF0.010442317463457584
aF0.009304969571530819
aF0.007735883817076683
aF0.006526734679937363
aF0.008180010132491589
aF0.001878418610431254
aF0.003874849295243621
aF0.0033421064727008343
aF-0.0016697258688509464
aF-0.0009112682892009616
aF-9.148532262770459e-05
aF-0.001972573809325695
aF0.0012653374578803778
aF0.006161327939480543
aF0.001999892760068178
aF0.007133378181606531
aF0.007230991031974554
aF0.0018510074587538838
aF0.000709259242285043
aF-0.0035002802032977343
aF0.0007189329480752349
aF0.003690845100209117
aF-0.0008982123690657318
aF0.0009879583958536386
aF0.0008989110356196761
aF0.0019044491928070784
aF-0.00022810997324995697
aF-0.002353800693526864
aF0.00039767747512087226
aF-0.00020076180226169527
aF-0.0008200003649108112
aF0.0017697869334369898
aF0.0010681513231247663
aF0.000703700352460146
aF-0.004079445730894804
aF-0.0013489624252542853
aF-0.00818095076829195
aF-0.00257005519233644
aF-0.004826107993721962
aF-0.005895634181797504
aF-0.004350875038653612
aF0.0015661451034247875
aF-0.009452195838093758
aF0.0006474161054939032
aF-0.0015548373339697719
aF0.00035137159284204245
aF0.0006377337849698961
aF0.00026253648684360087
aF-0.0014050198951736093
aF-0.0017682097386568785
aF-0.001501837046816945
aF-0.006495560985058546
aF-0.0010974060278385878
aF-0.0027431410271674395
aF-0.0013354192487895489
aF-0.001857670722529292
aF-0.003175603225827217
aF-0.0037993902806192636
aF-0.004321833606809378
aF-0.004727521445602179
aF-0.0023250491358339787
aF0.0009865390602499247
aF0.00321343750692904
aF-0.002572492463514209
aF-0.004537604749202728
aF-0.001532678259536624
aF-0.0012225907994434237
aF-0.005803349427878857
aF-0.002239412860944867
aF-0.0039918990805745125
aF-0.004593939520418644
aF-0.007302960846573114
aF-0.005200883839279413
aF-0.0037222641985863447
aF-0.0072279018349945545
aF-0.006535918451845646
aF-0.004578259773552418
aF-0.006383268162608147
aF-0.00686163455247879
aF-0.0064759631641209126
aF-0.007737711537629366
aF-0.0060582333244383335
aF-0.010863334871828556
aF-0.007678748108446598
aF-0.012063487432897091
aF-0.009214937686920166
aF-0.008358209393918514
aF-0.008788654580712318
aF-0.010069108568131924
aF-0.011254556477069855
aF-0.008099243976175785
aF-0.012908418662846088
aF-0.007735011633485556
aF-0.008084318600594997
aF-0.009376988746225834
aF-0.011432991363108158
aF-0.014254073612391949
aF-0.013081545010209084
aF-0.01394352875649929
aF-0.016451792791485786
aF-0.010721500962972641
aF-0.014224319718778133
aF-0.015128321014344692
aF-0.022753199562430382
aF-0.017541522160172462
aF-0.016244197264313698
aF-0.01787101849913597
aF-0.017103808000683784
aF-0.013925842940807343
aF-0.014490692876279354
aF-0.01598505489528179
aF-0.016781935468316078
aF-0.01636366918683052
aF-0.01738782972097397
aF-0.017449436709284782
aF-0.012015825137495995
aF-0.008310629054903984
aF-0.019145937636494637
aF-0.01877870224416256
aF-0.011802250519394875
aF-0.016832351684570312
aF-0.012859897688031197
aF-0.017904238775372505
aF-0.014356960542500019
aF-0.0173559058457613
aF-0.017292439937591553
aF-0.017216023057699203
aF-0.02021700143814087
aF-0.01628992147743702
aF-0.019136758521199226
aF-0.014254587702453136
aF-0.016831688582897186
aF-0.015646306797862053
aF-0.017135141417384148
aF-0.012928000651299953
aF-0.01674077659845352
aF-0.01679394580423832
aF-0.01613750495016575
aF-0.015893498435616493
aF-0.016015416011214256
aF-0.015421385876834393
aF-0.01546754315495491
aF-0.012978813610970974
aF-0.010760101489722729
aF-0.015789691358804703
aF-0.013164426200091839
aF-0.011613598093390465
aF-0.01184774562716484
aF-0.014229755848646164
aF-0.007460422348231077
aF-0.006926457863301039
aF-0.011540974490344524
aF-0.00519581139087677
aF-0.009880500845611095
aF-0.009385195560753345
aF-0.007568270433694124
aF-0.011044624261558056
aF-0.008412192575633526
aF-0.014419054612517357
aF-0.011938371695578098
aF-0.01396226603537798
aF-0.01015321072191
aF-0.011177870444953442
aF-0.014184284955263138
aF-0.013236249797046185
aF-0.01094149611890316
aF-0.010004653595387936
aF-0.009782387875020504
aF-0.013404370285570621
aF-0.01078048162162304
aF-0.01555769145488739
aF-0.013045011088252068
aF-0.015000575222074986
aF-0.01729130558669567
aF-0.01538033690303564
aF-0.015236006118357182
aF-0.01410661544650793
aF-0.01133396103978157
aF-0.011327290907502174
aF-0.01092168316245079
aF-0.006262907758355141
aF-0.010454531759023666
aF-0.010702202096581459
aF-0.00893360935151577
aF-0.009692363440990448
aF-0.012145983055233955
aF-0.008192108012735844
aF-0.01036373432725668
aF-0.008301369845867157
aF-0.0034241362009197474
aF-0.008966016583144665
aF-0.008135177195072174
aF-0.00980868935585022
aF-0.008728716522455215
aF-0.01144398469477892
aF-0.013679452240467072
aF-0.010880818590521812
aF-0.0074743409641087055
aF-0.013978112488985062
aF-0.009990422055125237
aF-0.008763887919485569
aF-0.010990561917424202
aF-0.012844651937484741
aF-0.012366171926259995
aF-0.009838995523750782
aF-0.008576515130698681
aF-0.010157749056816101
aF-0.010730271227657795
aF-0.011939981020987034
aF-0.009380361996591091
aF-0.0144006023183465
aF-0.007541895378381014
aF-0.010520465672016144
aF-0.010209954343736172
aF-0.01138145849108696
aF-0.01222173497080803
aF-0.011442594230175018
aF-0.009811035357415676
aF-0.01211665477603674
aF-0.009324675425887108
aF-0.009501746855676174
aF-0.011105146259069443
aF-0.00993999745696783
aF-0.010051627643406391
aF-0.01082899421453476
aF-0.009444617666304111
aF-0.011807623319327831
aF-0.013817817904055119
aF-0.012295909225940704
aF-0.015405701473355293
aF-0.014386081136763096
aF-0.013832212425768375
aF-0.013159286230802536
aF-0.015853317454457283
aF-0.013060839846730232
aF-0.010206692852079868
aF-0.014302561990916729
aF-0.011537044309079647
aF-0.011029678396880627
aF-0.012411567382514477
aF-0.020085811614990234
aF-0.01838444173336029
aF-0.014631020836532116
aF-0.014078018255531788
aF-0.013170155696570873
aF-0.013276922516524792
aF-0.012762138620018959
aF-0.014551566913723946
aF-0.012101087719202042
aF-0.0151448342949152
aF-0.01472353097051382
aF-0.014048689045011997
aF-0.009690338745713234
aF-0.013519645668566227
aF-0.010795225389301777
aF-0.014912842772901058
aF-0.011256003752350807
aF-0.01383465901017189
aF-0.008798389695584774
aF-0.011805824004113674
aF-0.009992499835789204
aF-0.013892062939703465
aF-0.015370596200227737
aF-0.014293554238975048
aF-0.0102533008903265
aF-0.014461151324212551
aF-0.014887568540871143
aF-0.01323156338185072
aF-0.016195017844438553
aF-0.014344845898449421
aF-0.01257669273763895
aF-0.012611162848770618
aF-0.010423175059258938
aF-0.010060720145702362
aF-0.011403891257941723
aF-0.013675972819328308
aF-0.013635734096169472
aF-0.010622103698551655
aF-0.013775862753391266
aF-0.010290552861988544
aF-0.009711824357509613
aF-0.011448117904365063
aF-0.009605537168681622
aF-0.00978331919759512
aF-0.01052083820104599
aF-0.009413076564669609
aF-0.010651892051100731
aF-0.011945391073822975
aF-0.013454717583954334
aF-0.010503278113901615
aF-0.0099317142739892
aF-0.012968973256647587
aF-0.009010132402181625
aF-0.010726281441748142
aF-0.011422830633819103
aF-0.01332930102944374
aF-0.015981948003172874
aF-0.013465026393532753
aF-0.012773667462170124
aF-0.008838395588099957
aF-0.009487182833254337
aF-0.010208990424871445
aF-0.009794209152460098
aF-0.006414858624339104
aF-0.009442110545933247
aF-0.008243854157626629
aF-0.008164319209754467
aF-0.009933200664818287
aF-0.003525933949276805
aF-0.008527704514563084
aF-0.0026798942126333714
aF-0.0048555233515799046
aF-0.004602799657732248
aF-0.005489453673362732
aF-0.008195878937840462
aF-0.005314272362738848
aF-0.007512304931879044
aF-0.006869006436318159
aF-0.006178935989737511
aF-0.003675446379929781
aF-0.007736369501799345
aF-0.011052555404603481
aF-0.0020178337581455708
aF-0.0051519740372896194
aF0.0001933049934450537
aF-0.006297655403614044
aF-0.0046806950122118
aF-0.002891554031521082
aF-0.005973842926323414
aF-0.0028466791845858097
aF-0.0010618926025927067
aF-0.0002043846616288647
aF-0.0006861353758722544
aF-0.0024531057570129633
aF-0.005726833362132311
aF-0.009536171332001686
aF0.0008771959692239761
aF0.0005217991420067847
aF0.0008239539456553757
aF-0.0011795001337304711
aF0.006344440393149853
aF-0.0031736050732433796
aF0.003212576499208808
aF0.002628696383908391
aF0.0007636263035237789
aF0.0038502903189510107
aF-0.0015472978120669723
aF0.003978786990046501
aF0.0016158526996150613
aF-0.0005320538766682148
aF0.0019220426911488175
aF0.0029726321808993816
aF0.008798941038548946
aF0.005308720748871565
aF0.009233228862285614
aF0.005796425044536591
aF0.0012917181011289358
aF0.007649969309568405
aF0.002515762811526656
aF0.006854719016700983
aF0.00461144745349884
aF0.0028289889451116323
aF0.006234762724488974
aF0.004046357702463865
aF0.00650790985673666
aF0.006868972443044186
aF0.008409151807427406
aF0.005714010447263718
aF0.005589526146650314
aF0.009416607208549976
aF0.00813603401184082
aF0.00831299927085638
aF0.009081647731363773
aF0.008051839657127857
aF0.010322583839297295
aF0.005568850785493851
aF0.006420568097382784
aF0.0070561557076871395
aF0.005763158202171326
aF0.004780428484082222
aF0.007922537624835968
aF0.011538379825651646
aF0.009507252834737301
aF0.011032416485249996
aF0.007843158207833767
aF0.008000856265425682
aF0.012198027223348618
aF0.007855640724301338
aF0.00982541311532259
aF0.011622963473200798
aF0.010963356122374535
aF0.00971771776676178
aF0.006904785055667162
aF0.014863904565572739
aF0.010193048045039177
aF0.012837827205657959
aF0.005646556615829468
aF0.010923180729150772
aF0.00460986141115427
aF0.005216933321207762
aF0.012708237394690514
aF0.010258086957037449
aF0.015169374644756317
aF0.013428909704089165
aF0.010738134384155273
aF0.012128805741667747
aF0.014663588255643845
aF0.01378234475851059
aF0.010509654879570007
aF0.011589345522224903
aF0.013387439772486687
aF0.013340068981051445
aF0.01190231554210186
aF0.012539836578071117
aF0.01491487305611372
aF0.018877428025007248
aF0.018106643110513687
aF0.010167669504880905
aF0.011731968261301517
aF0.011970474384725094
aF0.01206193771213293
aF0.007328240666538477
aF0.013273135758936405
aF0.014412378892302513
aF0.014526575803756714
aF0.009697746485471725
aF0.009146547876298428
aF0.007310895249247551
aF0.007644902914762497
aF0.011592327617108822
aF0.012833721935749054
aF0.007540304213762283
aF0.010801946744322777
aF0.011421759612858295
aF0.012392966076731682
aF0.008879225701093674
aF0.01211303099989891
aF0.014234781265258789
aF0.010131707414984703
aF0.00837131030857563
aF0.012108228169381618
aF0.012781231664121151
aF0.009282580576837063
aF0.009993835352361202
aF0.013802887871861458
aF0.012781446799635887
aF0.006770338397473097
aF0.007550109643489122
aF0.008514952845871449
aF0.009687159210443497
aF0.010379924438893795
aF0.005703368689864874
aF0.005646747536957264
aF0.0067751165479421616
aF0.007160931825637817
aF0.008136898279190063
aF0.009320667013525963
aF0.0066664027981460094
aF0.0051125334575772285
aF0.00929009635001421
aF0.0024322906974703074
aF0.005758985411375761
aF0.009047762490808964
aF0.006816526874899864
aF0.007631763815879822
aF0.01143946684896946
aF0.006482720375061035
aF0.0037216260097920895
aF0.007663760334253311
aF0.006725842133164406
aF0.010801093652844429
aF0.008831012062728405
aF0.008297758176922798
aF0.010383252054452896
aF0.008898643776774406
aF0.008814291097223759
aF0.007280482444912195
aF0.009601658210158348
aF0.01056753471493721
aF0.008315181359648705
aF0.005781020503491163
aF0.004619282204657793
aF0.00286325765773654
aF0.0018638856709003448
aF0.0015907841734588146
aF0.0006452088127844036
aF0.002573365345597267
aF-0.0018907289486378431
aF0.001622913172468543
aF0.0019037906313315034
aF0.0017409041756764054
aF0.0017414389876648784
aF0.003532996866852045
aF0.00012587170931510627
aF0.003969078883528709
aF0.004866553470492363
aF-0.0003224038810003549
aF0.004046021960675716
aF0.0036013845819979906
aF0.002812554594129324
aF0.003914196044206619
aF0.0006601640488952398
aF-1.1554048796824645e-05
aF0.00029930801247246563
aF-0.0009103178745135665
aF0.001957256579771638
aF-0.002036126796156168
aF0.0011595466639846563
aF0.005765324458479881
aF0.0053668939508497715
aF0.0003368384495843202
aF0.001474676188081503
aF0.0031979752238839865
aF0.002371259033679962
aF0.0015704331453889608
aF0.0010924263624474406
aF0.005196467973291874
aF0.001155973644927144
aF0.0005148765631020069
aF-0.0033243533689528704
aF0.0011292356066405773
aF0.004361962433904409
aF-0.0023967802990227938
aF-0.0012573102721944451
aF-0.0013843536144122481
aF0.002204524353146553
aF0.0029621529392898083
aF0.005212543066591024
aF0.0038202290888875723
aF0.0028759425040334463
aF0.0006289017619565129
aF-0.0022435514256358147
aF-0.0028944839723408222
aF-0.0036635424476116896
aF-0.0038596505764871836
aF0.001664746436290443
aF0.003621805692091584
aF0.002073509618639946
aF0.0003386657917872071
aF-0.0035844468511641026
aF-0.0035742397885769606
aF-0.0013419549213722348
aF-0.003666684962809086
aF0.0010671610943973064
aF0.0017258652951568365
aF0.00010606608702801168
aF0.0006317546940408647
aF-0.0004233964718878269
aF-0.004326517228037119
aF-0.002453646156936884
aF0.001928878715261817
aF-0.0005605467013083398
aF0.0005992252263240516
aF-0.0011636558920145035
aF-0.0007853003335185349
aF0.0007404235075227916
aF-0.0026837033219635487
aF-0.002199087291955948
aF-0.003471712116152048
aF-0.002849324606359005
aF0.0008267270750366151
aF0.0024409701582044363
aF0.0013585533015429974
aF-0.0003159757179673761
aF0.001204900210723281
aF0.00548646179959178
aF-0.0015416799578815699
aF-0.0026583385188132524
aF-0.0016518074553459883
aF0.0012974643614143133
aF-0.0024008348118513823
aF0.0027277020271867514
aF-0.0026541755069047213
aF-0.0019907341338694096
aF0.0025523521471768618
aF0.0009677463094703853
aF0.004795807879418135
aF0.0036846695002168417
aF0.0024811788462102413
aF0.0007411561091430485
aF0.0013333125971257687
aF0.0006627847324125469
aF-0.0014005157863721251
aF0.006176190450787544
aF0.0016058121109381318
aF0.002625567838549614
aF0.007208356633782387
aF0.0019428080413490534
aF0.0013108267448842525
aF0.0075247567147016525
aF0.006105600390583277
aF0.0025320497807115316
aF0.005544012412428856
aF0.0006481779273599386
aF0.004905398935079575
aF0.0023657435085624456
aF-0.0015748500591143966
aF-0.000446882942924276
aF-0.001646219054237008
aF-7.028755499050021e-05
aF0.006230670027434826
aF0.0010918991174548864
aF0.0038775817956775427
aF0.0025633962359279394
aF-0.0003954957937821746
aF0.002594301477074623
aF0.003445129841566086
aF0.00030510080978274345
aF0.0010849941754713655
aF-0.00029866446857340634
aF0.0037396324332803488
aF0.00317404349334538
aF3.428904528846033e-05
aF0.0008314490551128983
aF0.001333411200903356
aF0.004866022150963545
aF0.003085438162088394
aF0.001906413002870977
aF0.003167328890413046
aF0.0025495958980172873
aF0.00023850754951126873
aF0.006282275076955557
aF0.0026422101072967052
aF0.004647122696042061
aF0.0024577591102570295
aF-0.0012904874747619033
aF-9.492813114775345e-05
aF-0.002044851426035166
aF0.0004262752190697938
aF0.0007926893886178732
aF-0.0037213528994470835
aF0.0018086204072460532
aF0.002334350487217307
aF-0.0024296052288264036
aF-0.0017768075922504067
aF-0.001113525009714067
aF0.0016663999995216727
aF0.0002740709751378745
aF0.0012970359530299902
aF-0.002260098699480295
aF0.0003667472628876567
aF-0.0003370744234416634
aF0.0038506328128278255
aF-2.9426071705529466e-05
aF0.0022998566273599863
aF0.0021794470958411694
aF-0.0003998692554887384
aF-0.0025641731917858124
aF0.0013585590058937669
aF0.0013505277456715703
aF-0.002149794716387987
aF0.0024793101474642754
aF0.0026897394564002752
aF-0.0007803557091392577
aF-0.0034549746196717024
aF0.002670462941750884
aF0.0003983727947343141
aF0.005119736306369305
aF0.001933602150529623
aF0.006472799461334944
aF0.0050308071076869965
aF0.0026271380484104156
aF0.0035873837769031525
aF0.002285208785906434
aF0.0018795395735651255
aF0.0012356952065601945
aF0.006270994432270527
aF0.008609438315033913
aF0.00718790153041482
aF0.006632439326494932
aF0.011182774789631367
aF0.006965763866901398
aF0.0061552696861326694
aF0.006492370739579201
aF0.0033521889708936214
aF0.004185115452855825
aF0.0011861432576552033
aF-0.002420487580820918
aF0.0033474403899163008
aF0.0033881438430398703
aF-0.0001859911426436156
aF0.00043086311779916286
aF0.003901664400473237
aF-0.0009880424477159977
aF0.0007106771226972342
aF0.0007714267703704536
aF-0.002909137634560466
aF2.5995115720434114e-05
aF0.004015631508082151
aF-0.0014781097415834665
aF-0.001907397760078311
aF0.0014663466718047857
aF-0.0033067436888813972
aF0.0016997247003018856
aF0.00036578031722456217
aF0.0020123180001974106
aF0.002140748780220747
aF0.0003342680574860424
aF0.0011084057623520494
aF0.002939527854323387
aF0.004906464368104935
aF0.0012055090628564358
aF-0.005407280288636684
aF-0.0007540195947512984
aF0.004750976804643869
aF-0.001872772816568613
aF0.004221515730023384
aF0.0009317448129877448
aF0.005086047574877739
aF0.0012648806441575289
aF0.0014133041258901358
aF0.004641334991902113
aF0.002180173760280013
aF0.002903205808252096
aF0.002807920565828681
aF0.0021114610135555267
aF0.007951511070132256
aF0.0016877256566658616
aF0.0036132168024778366
aF0.0011263970518484712
aF0.0015586557565256953
aF0.0017658211290836334
aF0.0002659462334122509
aF-0.00015612912829965353
aF-0.0014895504573360085
aF-0.00043887688661925495
aF0.0009584274375811219
aF-6.007402134855511e-06
aF-0.003994158934801817
aF-0.004932908341288567
aF-0.006009113509207964
aF-0.003438304178416729
aF-0.0033044128213077784
aF-0.006480357609689236
aF-0.0033430762123316526
aF-0.0015560970641672611
aF-0.001744838897138834
aF-0.005312121473252773
aF-0.0037725523579865694
aF-0.00620011892169714
aF-0.01038346253335476
aF-0.007983217015862465
aF-0.014696607366204262
aF-0.01928078755736351
aF-0.018397074192762375
aF-0.017080694437026978
aF-0.016155486926436424
aF-0.02197551727294922
aF-0.01374824158847332
aF-0.015297931618988514
aF-0.015405602753162384
aF-0.012276789173483849
aF-0.009920001961290836
aF-0.006951810326427221
aF-0.009461202658712864
aF-0.011587345972657204
aF-0.009633483365178108
aF-0.013834365643560886
aF-0.010255823843181133
aF-0.0069333640858531
aF-0.006604108028113842
aF-0.006634050980210304
aF-0.008214278146624565
aF-0.014102956280112267
aF-0.007390986662358046
aF-0.01038325671106577
aF-0.007698382250964642
aF-0.014110331423580647
aF-0.007572248578071594
aF-0.007809008471667767
aF-0.01140145305544138
aF-0.010229554958641529
aF-0.012052178382873535
aF-0.012907087802886963
aF-0.012752136215567589
aF-0.006508581340312958
aF-0.006231291219592094
aF-0.0037167968694120646
aF-0.008585699833929539
aF-0.008654270321130753
aF-0.0038077575154602528
aF-0.004905655514448881
aF0.000995789305306971
aF-0.0002019251842284575
aF-0.0033467120956629515
aF-0.0006649984861724079
aF-0.002612086245790124
aF-0.0021240287460386753
aF-0.003800054546445608
aF-0.006505724508315325
aF-0.0023875015322118998
aF-7.107395504135638e-05
aF-0.0018225314561277628
aF-0.0036022283602505922
aF-0.00029819668270647526
aF-0.0004498932103160769
aF-0.0028583151288330555
aF-0.005366182886064053
aF-0.0036619866732507944
aF-0.007121609058231115
aF-0.005868433974683285
aF0.0001926944823935628
aF0.003246854990720749
aF0.0030982361640781164
aF-0.00439748028293252
aF0.0018710728036239743
aF-0.00016393927216995507
aF0.005333723966032267
aF0.004105176776647568
aF0.001409187214449048
aF0.003209464717656374
aF-0.00417271489277482
aF0.0013896544696763158
aF0.002298618433997035
aF0.0058179921470582485
aF0.0073783681727945805
aF0.0021065769251435995
aF0.007216751575469971
aF0.003993571735918522
aF0.0043474482372403145
aF0.0034063211642205715
aF0.004300436936318874
aF0.005081883631646633
aF-0.0005514530930668116
aF0.007131876423954964
aF-0.00047513082972727716
aF0.0046158526092767715
aF0.006062461528927088
aF0.007582337129861116
aF0.00040882278699427843
aF0.0033710929565131664
aF0.005031397100538015
aF0.007230708841234446
aF0.00960933044552803
aF0.008677495643496513
aF0.005498590879142284
aF0.007872016169130802
aF0.006453213281929493
aF0.0063764615915715694
aF0.011001641862094402
aF0.005226464010775089
aF0.009064344689249992
aF0.006680195219814777
aF0.00562779838219285
aF0.010689178481698036
aF0.010962807573378086
aF0.010798661969602108
aF0.009435868822038174
aF0.009545113891363144
aF0.01797453872859478
aF0.01712466962635517
aF0.016179120168089867
aF0.015571466647088528
aF0.011635580100119114
aF0.013134817592799664
aF0.01604093238711357
aF0.015561297535896301
aF0.01921783573925495
atp9
a.